
ams_f429.elf:     file format elf32-littlearm

Sections:
Idx Name          Size      VMA       LMA       File off  Algn
  0 .isr_vector   000001ac  08000000  08000000  00010000  2**0
                  CONTENTS, ALLOC, LOAD, READONLY, DATA
  1 .text         000017d0  080001ac  080001ac  000101ac  2**2
                  CONTENTS, ALLOC, LOAD, READONLY, CODE
  2 .rodata       00000018  0800197c  0800197c  0001197c  2**2
                  CONTENTS, ALLOC, LOAD, READONLY, DATA
  3 .ARM.extab    00000000  08001994  08001994  0002000c  2**0
                  CONTENTS
  4 .ARM          00000008  08001994  08001994  00011994  2**2
                  CONTENTS, ALLOC, LOAD, READONLY, DATA
  5 .preinit_array 00000000  0800199c  0800199c  0002000c  2**0
                  CONTENTS, ALLOC, LOAD, DATA
  6 .init_array   00000004  0800199c  0800199c  0001199c  2**2
                  CONTENTS, ALLOC, LOAD, DATA
  7 .fini_array   00000004  080019a0  080019a0  000119a0  2**2
                  CONTENTS, ALLOC, LOAD, DATA
  8 .data         0000000c  20000000  080019a4  00020000  2**2
                  CONTENTS, ALLOC, LOAD, DATA
  9 .bss          0000016c  2000000c  080019b0  0002000c  2**2
                  ALLOC
 10 ._user_heap_stack 00000600  20000178  080019b0  00020178  2**0
                  ALLOC
 11 .ARM.attributes 00000030  00000000  00000000  0002000c  2**0
                  CONTENTS, READONLY
 12 .comment      0000007b  00000000  00000000  0002003c  2**0
                  CONTENTS, READONLY
 13 .debug_frame  0000008c  00000000  00000000  000200b8  2**2
                  CONTENTS, READONLY, DEBUGGING

Disassembly of section .text:

080001ac <__do_global_dtors_aux>:
 80001ac:	b510      	push	{r4, lr}
 80001ae:	4c05      	ldr	r4, [pc, #20]	; (80001c4 <__do_global_dtors_aux+0x18>)
 80001b0:	7823      	ldrb	r3, [r4, #0]
 80001b2:	b933      	cbnz	r3, 80001c2 <__do_global_dtors_aux+0x16>
 80001b4:	4b04      	ldr	r3, [pc, #16]	; (80001c8 <__do_global_dtors_aux+0x1c>)
 80001b6:	b113      	cbz	r3, 80001be <__do_global_dtors_aux+0x12>
 80001b8:	4804      	ldr	r0, [pc, #16]	; (80001cc <__do_global_dtors_aux+0x20>)
 80001ba:	f3af 8000 	nop.w
 80001be:	2301      	movs	r3, #1
 80001c0:	7023      	strb	r3, [r4, #0]
 80001c2:	bd10      	pop	{r4, pc}
 80001c4:	2000000c 	.word	0x2000000c
 80001c8:	00000000 	.word	0x00000000
 80001cc:	08001964 	.word	0x08001964

080001d0 <frame_dummy>:
 80001d0:	b508      	push	{r3, lr}
 80001d2:	4b03      	ldr	r3, [pc, #12]	; (80001e0 <frame_dummy+0x10>)
 80001d4:	b11b      	cbz	r3, 80001de <frame_dummy+0xe>
 80001d6:	4903      	ldr	r1, [pc, #12]	; (80001e4 <frame_dummy+0x14>)
 80001d8:	4803      	ldr	r0, [pc, #12]	; (80001e8 <frame_dummy+0x18>)
 80001da:	f3af 8000 	nop.w
 80001de:	bd08      	pop	{r3, pc}
 80001e0:	00000000 	.word	0x00000000
 80001e4:	20000010 	.word	0x20000010
 80001e8:	08001964 	.word	0x08001964

080001ec <__aeabi_uldivmod>:
 80001ec:	b953      	cbnz	r3, 8000204 <__aeabi_uldivmod+0x18>
 80001ee:	b94a      	cbnz	r2, 8000204 <__aeabi_uldivmod+0x18>
 80001f0:	2900      	cmp	r1, #0
 80001f2:	bf08      	it	eq
 80001f4:	2800      	cmpeq	r0, #0
 80001f6:	bf1c      	itt	ne
 80001f8:	f04f 31ff 	movne.w	r1, #4294967295
 80001fc:	f04f 30ff 	movne.w	r0, #4294967295
 8000200:	f000 b972 	b.w	80004e8 <__aeabi_idiv0>
 8000204:	f1ad 0c08 	sub.w	ip, sp, #8
 8000208:	e96d ce04 	strd	ip, lr, [sp, #-16]!
 800020c:	f000 f806 	bl	800021c <__udivmoddi4>
 8000210:	f8dd e004 	ldr.w	lr, [sp, #4]
 8000214:	e9dd 2302 	ldrd	r2, r3, [sp, #8]
 8000218:	b004      	add	sp, #16
 800021a:	4770      	bx	lr

0800021c <__udivmoddi4>:
 800021c:	e92d 47f0 	stmdb	sp!, {r4, r5, r6, r7, r8, r9, sl, lr}
 8000220:	9e08      	ldr	r6, [sp, #32]
 8000222:	4604      	mov	r4, r0
 8000224:	4688      	mov	r8, r1
 8000226:	2b00      	cmp	r3, #0
 8000228:	d14b      	bne.n	80002c2 <__udivmoddi4+0xa6>
 800022a:	428a      	cmp	r2, r1
 800022c:	4615      	mov	r5, r2
 800022e:	d967      	bls.n	8000300 <__udivmoddi4+0xe4>
 8000230:	fab2 f282 	clz	r2, r2
 8000234:	b14a      	cbz	r2, 800024a <__udivmoddi4+0x2e>
 8000236:	f1c2 0720 	rsb	r7, r2, #32
 800023a:	fa01 f302 	lsl.w	r3, r1, r2
 800023e:	fa20 f707 	lsr.w	r7, r0, r7
 8000242:	4095      	lsls	r5, r2
 8000244:	ea47 0803 	orr.w	r8, r7, r3
 8000248:	4094      	lsls	r4, r2
 800024a:	ea4f 4e15 	mov.w	lr, r5, lsr #16
 800024e:	0c23      	lsrs	r3, r4, #16
 8000250:	fbb8 f7fe 	udiv	r7, r8, lr
 8000254:	fa1f fc85 	uxth.w	ip, r5
 8000258:	fb0e 8817 	mls	r8, lr, r7, r8
 800025c:	ea43 4308 	orr.w	r3, r3, r8, lsl #16
 8000260:	fb07 f10c 	mul.w	r1, r7, ip
 8000264:	4299      	cmp	r1, r3
 8000266:	d909      	bls.n	800027c <__udivmoddi4+0x60>
 8000268:	18eb      	adds	r3, r5, r3
 800026a:	f107 30ff 	add.w	r0, r7, #4294967295
 800026e:	f080 811b 	bcs.w	80004a8 <__udivmoddi4+0x28c>
 8000272:	4299      	cmp	r1, r3
 8000274:	f240 8118 	bls.w	80004a8 <__udivmoddi4+0x28c>
 8000278:	3f02      	subs	r7, #2
 800027a:	442b      	add	r3, r5
 800027c:	1a5b      	subs	r3, r3, r1
 800027e:	b2a4      	uxth	r4, r4
 8000280:	fbb3 f0fe 	udiv	r0, r3, lr
 8000284:	fb0e 3310 	mls	r3, lr, r0, r3
 8000288:	ea44 4403 	orr.w	r4, r4, r3, lsl #16
 800028c:	fb00 fc0c 	mul.w	ip, r0, ip
 8000290:	45a4      	cmp	ip, r4
 8000292:	d909      	bls.n	80002a8 <__udivmoddi4+0x8c>
 8000294:	192c      	adds	r4, r5, r4
 8000296:	f100 33ff 	add.w	r3, r0, #4294967295
 800029a:	f080 8107 	bcs.w	80004ac <__udivmoddi4+0x290>
 800029e:	45a4      	cmp	ip, r4
 80002a0:	f240 8104 	bls.w	80004ac <__udivmoddi4+0x290>
 80002a4:	3802      	subs	r0, #2
 80002a6:	442c      	add	r4, r5
 80002a8:	ea40 4007 	orr.w	r0, r0, r7, lsl #16
 80002ac:	eba4 040c 	sub.w	r4, r4, ip
 80002b0:	2700      	movs	r7, #0
 80002b2:	b11e      	cbz	r6, 80002bc <__udivmoddi4+0xa0>
 80002b4:	40d4      	lsrs	r4, r2
 80002b6:	2300      	movs	r3, #0
 80002b8:	e9c6 4300 	strd	r4, r3, [r6]
 80002bc:	4639      	mov	r1, r7
 80002be:	e8bd 87f0 	ldmia.w	sp!, {r4, r5, r6, r7, r8, r9, sl, pc}
 80002c2:	428b      	cmp	r3, r1
 80002c4:	d909      	bls.n	80002da <__udivmoddi4+0xbe>
 80002c6:	2e00      	cmp	r6, #0
 80002c8:	f000 80eb 	beq.w	80004a2 <__udivmoddi4+0x286>
 80002cc:	2700      	movs	r7, #0
 80002ce:	e9c6 0100 	strd	r0, r1, [r6]
 80002d2:	4638      	mov	r0, r7
 80002d4:	4639      	mov	r1, r7
 80002d6:	e8bd 87f0 	ldmia.w	sp!, {r4, r5, r6, r7, r8, r9, sl, pc}
 80002da:	fab3 f783 	clz	r7, r3
 80002de:	2f00      	cmp	r7, #0
 80002e0:	d147      	bne.n	8000372 <__udivmoddi4+0x156>
 80002e2:	428b      	cmp	r3, r1
 80002e4:	d302      	bcc.n	80002ec <__udivmoddi4+0xd0>
 80002e6:	4282      	cmp	r2, r0
 80002e8:	f200 80fa 	bhi.w	80004e0 <__udivmoddi4+0x2c4>
 80002ec:	1a84      	subs	r4, r0, r2
 80002ee:	eb61 0303 	sbc.w	r3, r1, r3
 80002f2:	2001      	movs	r0, #1
 80002f4:	4698      	mov	r8, r3
 80002f6:	2e00      	cmp	r6, #0
 80002f8:	d0e0      	beq.n	80002bc <__udivmoddi4+0xa0>
 80002fa:	e9c6 4800 	strd	r4, r8, [r6]
 80002fe:	e7dd      	b.n	80002bc <__udivmoddi4+0xa0>
 8000300:	b902      	cbnz	r2, 8000304 <__udivmoddi4+0xe8>
 8000302:	deff      	udf	#255	; 0xff
 8000304:	fab2 f282 	clz	r2, r2
 8000308:	2a00      	cmp	r2, #0
 800030a:	f040 808f 	bne.w	800042c <__udivmoddi4+0x210>
 800030e:	1b49      	subs	r1, r1, r5
 8000310:	ea4f 4e15 	mov.w	lr, r5, lsr #16
 8000314:	fa1f f885 	uxth.w	r8, r5
 8000318:	2701      	movs	r7, #1
 800031a:	fbb1 fcfe 	udiv	ip, r1, lr
 800031e:	0c23      	lsrs	r3, r4, #16
 8000320:	fb0e 111c 	mls	r1, lr, ip, r1
 8000324:	ea43 4301 	orr.w	r3, r3, r1, lsl #16
 8000328:	fb08 f10c 	mul.w	r1, r8, ip
 800032c:	4299      	cmp	r1, r3
 800032e:	d907      	bls.n	8000340 <__udivmoddi4+0x124>
 8000330:	18eb      	adds	r3, r5, r3
 8000332:	f10c 30ff 	add.w	r0, ip, #4294967295
 8000336:	d202      	bcs.n	800033e <__udivmoddi4+0x122>
 8000338:	4299      	cmp	r1, r3
 800033a:	f200 80cd 	bhi.w	80004d8 <__udivmoddi4+0x2bc>
 800033e:	4684      	mov	ip, r0
 8000340:	1a59      	subs	r1, r3, r1
 8000342:	b2a3      	uxth	r3, r4
 8000344:	fbb1 f0fe 	udiv	r0, r1, lr
 8000348:	fb0e 1410 	mls	r4, lr, r0, r1
 800034c:	ea43 4404 	orr.w	r4, r3, r4, lsl #16
 8000350:	fb08 f800 	mul.w	r8, r8, r0
 8000354:	45a0      	cmp	r8, r4
 8000356:	d907      	bls.n	8000368 <__udivmoddi4+0x14c>
 8000358:	192c      	adds	r4, r5, r4
 800035a:	f100 33ff 	add.w	r3, r0, #4294967295
 800035e:	d202      	bcs.n	8000366 <__udivmoddi4+0x14a>
 8000360:	45a0      	cmp	r8, r4
 8000362:	f200 80b6 	bhi.w	80004d2 <__udivmoddi4+0x2b6>
 8000366:	4618      	mov	r0, r3
 8000368:	eba4 0408 	sub.w	r4, r4, r8
 800036c:	ea40 400c 	orr.w	r0, r0, ip, lsl #16
 8000370:	e79f      	b.n	80002b2 <__udivmoddi4+0x96>
 8000372:	f1c7 0c20 	rsb	ip, r7, #32
 8000376:	40bb      	lsls	r3, r7
 8000378:	fa22 fe0c 	lsr.w	lr, r2, ip
 800037c:	ea4e 0e03 	orr.w	lr, lr, r3
 8000380:	fa01 f407 	lsl.w	r4, r1, r7
 8000384:	fa20 f50c 	lsr.w	r5, r0, ip
 8000388:	fa21 f30c 	lsr.w	r3, r1, ip
 800038c:	ea4f 481e 	mov.w	r8, lr, lsr #16
 8000390:	4325      	orrs	r5, r4
 8000392:	fbb3 f9f8 	udiv	r9, r3, r8
 8000396:	0c2c      	lsrs	r4, r5, #16
 8000398:	fb08 3319 	mls	r3, r8, r9, r3
 800039c:	fa1f fa8e 	uxth.w	sl, lr
 80003a0:	ea44 4303 	orr.w	r3, r4, r3, lsl #16
 80003a4:	fb09 f40a 	mul.w	r4, r9, sl
 80003a8:	429c      	cmp	r4, r3
 80003aa:	fa02 f207 	lsl.w	r2, r2, r7
 80003ae:	fa00 f107 	lsl.w	r1, r0, r7
 80003b2:	d90b      	bls.n	80003cc <__udivmoddi4+0x1b0>
 80003b4:	eb1e 0303 	adds.w	r3, lr, r3
 80003b8:	f109 30ff 	add.w	r0, r9, #4294967295
 80003bc:	f080 8087 	bcs.w	80004ce <__udivmoddi4+0x2b2>
 80003c0:	429c      	cmp	r4, r3
 80003c2:	f240 8084 	bls.w	80004ce <__udivmoddi4+0x2b2>
 80003c6:	f1a9 0902 	sub.w	r9, r9, #2
 80003ca:	4473      	add	r3, lr
 80003cc:	1b1b      	subs	r3, r3, r4
 80003ce:	b2ad      	uxth	r5, r5
 80003d0:	fbb3 f0f8 	udiv	r0, r3, r8
 80003d4:	fb08 3310 	mls	r3, r8, r0, r3
 80003d8:	ea45 4403 	orr.w	r4, r5, r3, lsl #16
 80003dc:	fb00 fa0a 	mul.w	sl, r0, sl
 80003e0:	45a2      	cmp	sl, r4
 80003e2:	d908      	bls.n	80003f6 <__udivmoddi4+0x1da>
 80003e4:	eb1e 0404 	adds.w	r4, lr, r4
 80003e8:	f100 33ff 	add.w	r3, r0, #4294967295
 80003ec:	d26b      	bcs.n	80004c6 <__udivmoddi4+0x2aa>
 80003ee:	45a2      	cmp	sl, r4
 80003f0:	d969      	bls.n	80004c6 <__udivmoddi4+0x2aa>
 80003f2:	3802      	subs	r0, #2
 80003f4:	4474      	add	r4, lr
 80003f6:	ea40 4009 	orr.w	r0, r0, r9, lsl #16
 80003fa:	fba0 8902 	umull	r8, r9, r0, r2
 80003fe:	eba4 040a 	sub.w	r4, r4, sl
 8000402:	454c      	cmp	r4, r9
 8000404:	46c2      	mov	sl, r8
 8000406:	464b      	mov	r3, r9
 8000408:	d354      	bcc.n	80004b4 <__udivmoddi4+0x298>
 800040a:	d051      	beq.n	80004b0 <__udivmoddi4+0x294>
 800040c:	2e00      	cmp	r6, #0
 800040e:	d069      	beq.n	80004e4 <__udivmoddi4+0x2c8>
 8000410:	ebb1 050a 	subs.w	r5, r1, sl
 8000414:	eb64 0403 	sbc.w	r4, r4, r3
 8000418:	fa04 fc0c 	lsl.w	ip, r4, ip
 800041c:	40fd      	lsrs	r5, r7
 800041e:	40fc      	lsrs	r4, r7
 8000420:	ea4c 0505 	orr.w	r5, ip, r5
 8000424:	e9c6 5400 	strd	r5, r4, [r6]
 8000428:	2700      	movs	r7, #0
 800042a:	e747      	b.n	80002bc <__udivmoddi4+0xa0>
 800042c:	f1c2 0320 	rsb	r3, r2, #32
 8000430:	fa20 f703 	lsr.w	r7, r0, r3
 8000434:	4095      	lsls	r5, r2
 8000436:	fa01 f002 	lsl.w	r0, r1, r2
 800043a:	fa21 f303 	lsr.w	r3, r1, r3
 800043e:	ea4f 4e15 	mov.w	lr, r5, lsr #16
 8000442:	4338      	orrs	r0, r7
 8000444:	0c01      	lsrs	r1, r0, #16
 8000446:	fbb3 f7fe 	udiv	r7, r3, lr
 800044a:	fa1f f885 	uxth.w	r8, r5
 800044e:	fb0e 3317 	mls	r3, lr, r7, r3
 8000452:	ea41 4103 	orr.w	r1, r1, r3, lsl #16
 8000456:	fb07 f308 	mul.w	r3, r7, r8
 800045a:	428b      	cmp	r3, r1
 800045c:	fa04 f402 	lsl.w	r4, r4, r2
 8000460:	d907      	bls.n	8000472 <__udivmoddi4+0x256>
 8000462:	1869      	adds	r1, r5, r1
 8000464:	f107 3cff 	add.w	ip, r7, #4294967295
 8000468:	d22f      	bcs.n	80004ca <__udivmoddi4+0x2ae>
 800046a:	428b      	cmp	r3, r1
 800046c:	d92d      	bls.n	80004ca <__udivmoddi4+0x2ae>
 800046e:	3f02      	subs	r7, #2
 8000470:	4429      	add	r1, r5
 8000472:	1acb      	subs	r3, r1, r3
 8000474:	b281      	uxth	r1, r0
 8000476:	fbb3 f0fe 	udiv	r0, r3, lr
 800047a:	fb0e 3310 	mls	r3, lr, r0, r3
 800047e:	ea41 4103 	orr.w	r1, r1, r3, lsl #16
 8000482:	fb00 f308 	mul.w	r3, r0, r8
 8000486:	428b      	cmp	r3, r1
 8000488:	d907      	bls.n	800049a <__udivmoddi4+0x27e>
 800048a:	1869      	adds	r1, r5, r1
 800048c:	f100 3cff 	add.w	ip, r0, #4294967295
 8000490:	d217      	bcs.n	80004c2 <__udivmoddi4+0x2a6>
 8000492:	428b      	cmp	r3, r1
 8000494:	d915      	bls.n	80004c2 <__udivmoddi4+0x2a6>
 8000496:	3802      	subs	r0, #2
 8000498:	4429      	add	r1, r5
 800049a:	1ac9      	subs	r1, r1, r3
 800049c:	ea40 4707 	orr.w	r7, r0, r7, lsl #16
 80004a0:	e73b      	b.n	800031a <__udivmoddi4+0xfe>
 80004a2:	4637      	mov	r7, r6
 80004a4:	4630      	mov	r0, r6
 80004a6:	e709      	b.n	80002bc <__udivmoddi4+0xa0>
 80004a8:	4607      	mov	r7, r0
 80004aa:	e6e7      	b.n	800027c <__udivmoddi4+0x60>
 80004ac:	4618      	mov	r0, r3
 80004ae:	e6fb      	b.n	80002a8 <__udivmoddi4+0x8c>
 80004b0:	4541      	cmp	r1, r8
 80004b2:	d2ab      	bcs.n	800040c <__udivmoddi4+0x1f0>
 80004b4:	ebb8 0a02 	subs.w	sl, r8, r2
 80004b8:	eb69 020e 	sbc.w	r2, r9, lr
 80004bc:	3801      	subs	r0, #1
 80004be:	4613      	mov	r3, r2
 80004c0:	e7a4      	b.n	800040c <__udivmoddi4+0x1f0>
 80004c2:	4660      	mov	r0, ip
 80004c4:	e7e9      	b.n	800049a <__udivmoddi4+0x27e>
 80004c6:	4618      	mov	r0, r3
 80004c8:	e795      	b.n	80003f6 <__udivmoddi4+0x1da>
 80004ca:	4667      	mov	r7, ip
 80004cc:	e7d1      	b.n	8000472 <__udivmoddi4+0x256>
 80004ce:	4681      	mov	r9, r0
 80004d0:	e77c      	b.n	80003cc <__udivmoddi4+0x1b0>
 80004d2:	3802      	subs	r0, #2
 80004d4:	442c      	add	r4, r5
 80004d6:	e747      	b.n	8000368 <__udivmoddi4+0x14c>
 80004d8:	f1ac 0c02 	sub.w	ip, ip, #2
 80004dc:	442b      	add	r3, r5
 80004de:	e72f      	b.n	8000340 <__udivmoddi4+0x124>
 80004e0:	4638      	mov	r0, r7
 80004e2:	e708      	b.n	80002f6 <__udivmoddi4+0xda>
 80004e4:	4637      	mov	r7, r6
 80004e6:	e6e9      	b.n	80002bc <__udivmoddi4+0xa0>

080004e8 <__aeabi_idiv0>:
 80004e8:	4770      	bx	lr
 80004ea:	bf00      	nop

080004ec <HAL_InitTick>:
 80004ec:	b538      	push	{r3, r4, r5, lr}
 80004ee:	4a0e      	ldr	r2, [pc, #56]	; (8000528 <HAL_InitTick+0x3c>)
 80004f0:	4b0e      	ldr	r3, [pc, #56]	; (800052c <HAL_InitTick+0x40>)
 80004f2:	7812      	ldrb	r2, [r2, #0]
 80004f4:	681b      	ldr	r3, [r3, #0]
 80004f6:	4605      	mov	r5, r0
 80004f8:	f44f 707a 	mov.w	r0, #1000	; 0x3e8
 80004fc:	fbb0 f0f2 	udiv	r0, r0, r2
 8000500:	fbb3 f0f0 	udiv	r0, r3, r0
 8000504:	f000 f8aa 	bl	800065c <HAL_SYSTICK_Config>
 8000508:	b908      	cbnz	r0, 800050e <HAL_InitTick+0x22>
 800050a:	2d0f      	cmp	r5, #15
 800050c:	d901      	bls.n	8000512 <HAL_InitTick+0x26>
 800050e:	2001      	movs	r0, #1
 8000510:	bd38      	pop	{r3, r4, r5, pc}
 8000512:	4604      	mov	r4, r0
 8000514:	4602      	mov	r2, r0
 8000516:	4629      	mov	r1, r5
 8000518:	f04f 30ff 	mov.w	r0, #4294967295
 800051c:	f000 f85a 	bl	80005d4 <HAL_NVIC_SetPriority>
 8000520:	4b03      	ldr	r3, [pc, #12]	; (8000530 <HAL_InitTick+0x44>)
 8000522:	4620      	mov	r0, r4
 8000524:	601d      	str	r5, [r3, #0]
 8000526:	bd38      	pop	{r3, r4, r5, pc}
 8000528:	20000000 	.word	0x20000000
 800052c:	20000008 	.word	0x20000008
 8000530:	20000004 	.word	0x20000004

08000534 <HAL_Init>:
 8000534:	b508      	push	{r3, lr}
 8000536:	4b0b      	ldr	r3, [pc, #44]	; (8000564 <HAL_Init+0x30>)
 8000538:	681a      	ldr	r2, [r3, #0]
 800053a:	f442 7200 	orr.w	r2, r2, #512	; 0x200
 800053e:	601a      	str	r2, [r3, #0]
 8000540:	681a      	ldr	r2, [r3, #0]
 8000542:	f442 6280 	orr.w	r2, r2, #1024	; 0x400
 8000546:	601a      	str	r2, [r3, #0]
 8000548:	681a      	ldr	r2, [r3, #0]
 800054a:	f442 7280 	orr.w	r2, r2, #256	; 0x100
 800054e:	601a      	str	r2, [r3, #0]
 8000550:	2003      	movs	r0, #3
 8000552:	f000 f82d 	bl	80005b0 <HAL_NVIC_SetPriorityGrouping>
 8000556:	2000      	movs	r0, #0
 8000558:	f7ff ffc8 	bl	80004ec <HAL_InitTick>
 800055c:	f001 f900 	bl	8001760 <HAL_MspInit>
 8000560:	2000      	movs	r0, #0
 8000562:	bd08      	pop	{r3, pc}
 8000564:	40023c00 	.word	0x40023c00

08000568 <HAL_IncTick>:
 8000568:	4a03      	ldr	r2, [pc, #12]	; (8000578 <HAL_IncTick+0x10>)
 800056a:	4b04      	ldr	r3, [pc, #16]	; (800057c <HAL_IncTick+0x14>)
 800056c:	6811      	ldr	r1, [r2, #0]
 800056e:	781b      	ldrb	r3, [r3, #0]
 8000570:	440b      	add	r3, r1
 8000572:	6013      	str	r3, [r2, #0]
 8000574:	4770      	bx	lr
 8000576:	bf00      	nop
 8000578:	20000028 	.word	0x20000028
 800057c:	20000000 	.word	0x20000000

08000580 <HAL_GetTick>:
 8000580:	4b01      	ldr	r3, [pc, #4]	; (8000588 <HAL_GetTick+0x8>)
 8000582:	6818      	ldr	r0, [r3, #0]
 8000584:	4770      	bx	lr
 8000586:	bf00      	nop
 8000588:	20000028 	.word	0x20000028

0800058c <HAL_Delay>:
 800058c:	b538      	push	{r3, r4, r5, lr}
 800058e:	4604      	mov	r4, r0
 8000590:	f7ff fff6 	bl	8000580 <HAL_GetTick>
 8000594:	1c63      	adds	r3, r4, #1
 8000596:	4605      	mov	r5, r0
 8000598:	d002      	beq.n	80005a0 <HAL_Delay+0x14>
 800059a:	4b04      	ldr	r3, [pc, #16]	; (80005ac <HAL_Delay+0x20>)
 800059c:	781b      	ldrb	r3, [r3, #0]
 800059e:	441c      	add	r4, r3
 80005a0:	f7ff ffee 	bl	8000580 <HAL_GetTick>
 80005a4:	1b40      	subs	r0, r0, r5
 80005a6:	42a0      	cmp	r0, r4
 80005a8:	d3fa      	bcc.n	80005a0 <HAL_Delay+0x14>
 80005aa:	bd38      	pop	{r3, r4, r5, pc}
 80005ac:	20000000 	.word	0x20000000

080005b0 <HAL_NVIC_SetPriorityGrouping>:
 80005b0:	4a07      	ldr	r2, [pc, #28]	; (80005d0 <HAL_NVIC_SetPriorityGrouping+0x20>)
 80005b2:	68d3      	ldr	r3, [r2, #12]
 80005b4:	f64f 01ff 	movw	r1, #63743	; 0xf8ff
 80005b8:	400b      	ands	r3, r1
 80005ba:	0200      	lsls	r0, r0, #8
 80005bc:	f043 63bf 	orr.w	r3, r3, #100139008	; 0x5f80000
 80005c0:	f400 60e0 	and.w	r0, r0, #1792	; 0x700
 80005c4:	f443 3300 	orr.w	r3, r3, #131072	; 0x20000
 80005c8:	4303      	orrs	r3, r0
 80005ca:	60d3      	str	r3, [r2, #12]
 80005cc:	4770      	bx	lr
 80005ce:	bf00      	nop
 80005d0:	e000ed00 	.word	0xe000ed00

080005d4 <HAL_NVIC_SetPriority>:
 80005d4:	4b18      	ldr	r3, [pc, #96]	; (8000638 <HAL_NVIC_SetPriority+0x64>)
 80005d6:	68db      	ldr	r3, [r3, #12]
 80005d8:	f3c3 2302 	ubfx	r3, r3, #8, #3
 80005dc:	b430      	push	{r4, r5}
 80005de:	f1c3 0507 	rsb	r5, r3, #7
 80005e2:	2d04      	cmp	r5, #4
 80005e4:	f103 0404 	add.w	r4, r3, #4
 80005e8:	bf28      	it	cs
 80005ea:	2504      	movcs	r5, #4
 80005ec:	2c06      	cmp	r4, #6
 80005ee:	d919      	bls.n	8000624 <HAL_NVIC_SetPriority+0x50>
 80005f0:	3b03      	subs	r3, #3
 80005f2:	f04f 34ff 	mov.w	r4, #4294967295
 80005f6:	409c      	lsls	r4, r3
 80005f8:	ea22 0404 	bic.w	r4, r2, r4
 80005fc:	f04f 32ff 	mov.w	r2, #4294967295
 8000600:	40aa      	lsls	r2, r5
 8000602:	ea21 0102 	bic.w	r1, r1, r2
 8000606:	fa01 f203 	lsl.w	r2, r1, r3
 800060a:	4322      	orrs	r2, r4
 800060c:	0112      	lsls	r2, r2, #4
 800060e:	2800      	cmp	r0, #0
 8000610:	b2d2      	uxtb	r2, r2
 8000612:	db0a      	blt.n	800062a <HAL_NVIC_SetPriority+0x56>
 8000614:	f100 4060 	add.w	r0, r0, #3758096384	; 0xe0000000
 8000618:	f500 4061 	add.w	r0, r0, #57600	; 0xe100
 800061c:	f880 2300 	strb.w	r2, [r0, #768]	; 0x300
 8000620:	bc30      	pop	{r4, r5}
 8000622:	4770      	bx	lr
 8000624:	2400      	movs	r4, #0
 8000626:	4623      	mov	r3, r4
 8000628:	e7e8      	b.n	80005fc <HAL_NVIC_SetPriority+0x28>
 800062a:	4b04      	ldr	r3, [pc, #16]	; (800063c <HAL_NVIC_SetPriority+0x68>)
 800062c:	f000 000f 	and.w	r0, r0, #15
 8000630:	4403      	add	r3, r0
 8000632:	761a      	strb	r2, [r3, #24]
 8000634:	bc30      	pop	{r4, r5}
 8000636:	4770      	bx	lr
 8000638:	e000ed00 	.word	0xe000ed00
 800063c:	e000ecfc 	.word	0xe000ecfc

08000640 <HAL_NVIC_EnableIRQ>:
 8000640:	2800      	cmp	r0, #0
 8000642:	db07      	blt.n	8000654 <HAL_NVIC_EnableIRQ+0x14>
 8000644:	f000 011f 	and.w	r1, r0, #31
 8000648:	2301      	movs	r3, #1
 800064a:	0940      	lsrs	r0, r0, #5
 800064c:	4a02      	ldr	r2, [pc, #8]	; (8000658 <HAL_NVIC_EnableIRQ+0x18>)
 800064e:	408b      	lsls	r3, r1
 8000650:	f842 3020 	str.w	r3, [r2, r0, lsl #2]
 8000654:	4770      	bx	lr
 8000656:	bf00      	nop
 8000658:	e000e100 	.word	0xe000e100

0800065c <HAL_SYSTICK_Config>:
 800065c:	3801      	subs	r0, #1
 800065e:	f1b0 7f80 	cmp.w	r0, #16777216	; 0x1000000
 8000662:	d20e      	bcs.n	8000682 <HAL_SYSTICK_Config+0x26>
 8000664:	4b08      	ldr	r3, [pc, #32]	; (8000688 <HAL_SYSTICK_Config+0x2c>)
 8000666:	b410      	push	{r4}
 8000668:	4c08      	ldr	r4, [pc, #32]	; (800068c <HAL_SYSTICK_Config+0x30>)
 800066a:	6058      	str	r0, [r3, #4]
 800066c:	20f0      	movs	r0, #240	; 0xf0
 800066e:	f884 0023 	strb.w	r0, [r4, #35]	; 0x23
 8000672:	2200      	movs	r2, #0
 8000674:	2107      	movs	r1, #7
 8000676:	4610      	mov	r0, r2
 8000678:	609a      	str	r2, [r3, #8]
 800067a:	6019      	str	r1, [r3, #0]
 800067c:	f85d 4b04 	ldr.w	r4, [sp], #4
 8000680:	4770      	bx	lr
 8000682:	2001      	movs	r0, #1
 8000684:	4770      	bx	lr
 8000686:	bf00      	nop
 8000688:	e000e010 	.word	0xe000e010
 800068c:	e000ed00 	.word	0xe000ed00

08000690 <HAL_GPIO_Init>:
 8000690:	e92d 4ff0 	stmdb	sp!, {r4, r5, r6, r7, r8, r9, sl, fp, lr}
 8000694:	f8df c260 	ldr.w	ip, [pc, #608]	; 80008f8 <HAL_GPIO_Init+0x268>
 8000698:	f8df 8260 	ldr.w	r8, [pc, #608]	; 80008fc <HAL_GPIO_Init+0x26c>
 800069c:	f8d1 e000 	ldr.w	lr, [r1]
 80006a0:	b083      	sub	sp, #12
 80006a2:	2500      	movs	r5, #0
 80006a4:	e003      	b.n	80006ae <HAL_GPIO_Init+0x1e>
 80006a6:	3501      	adds	r5, #1
 80006a8:	2d10      	cmp	r5, #16
 80006aa:	f000 80a4 	beq.w	80007f6 <HAL_GPIO_Init+0x166>
 80006ae:	2301      	movs	r3, #1
 80006b0:	40ab      	lsls	r3, r5
 80006b2:	ea0e 0403 	and.w	r4, lr, r3
 80006b6:	42a3      	cmp	r3, r4
 80006b8:	d1f5      	bne.n	80006a6 <HAL_GPIO_Init+0x16>
 80006ba:	684e      	ldr	r6, [r1, #4]
 80006bc:	f026 0a10 	bic.w	sl, r6, #16
 80006c0:	f1ba 0f02 	cmp.w	sl, #2
 80006c4:	f000 809a 	beq.w	80007fc <HAL_GPIO_Init+0x16c>
 80006c8:	ea4f 0945 	mov.w	r9, r5, lsl #1
 80006cc:	2203      	movs	r2, #3
 80006ce:	f8d0 b000 	ldr.w	fp, [r0]
 80006d2:	fa02 f209 	lsl.w	r2, r2, r9
 80006d6:	43d2      	mvns	r2, r2
 80006d8:	f006 0703 	and.w	r7, r6, #3
 80006dc:	ea02 0b0b 	and.w	fp, r2, fp
 80006e0:	fa07 f709 	lsl.w	r7, r7, r9
 80006e4:	f10a 3aff 	add.w	sl, sl, #4294967295
 80006e8:	ea47 070b 	orr.w	r7, r7, fp
 80006ec:	f1ba 0f01 	cmp.w	sl, #1
 80006f0:	6007      	str	r7, [r0, #0]
 80006f2:	f240 80a9 	bls.w	8000848 <HAL_GPIO_Init+0x1b8>
 80006f6:	68c7      	ldr	r7, [r0, #12]
 80006f8:	688b      	ldr	r3, [r1, #8]
 80006fa:	403a      	ands	r2, r7
 80006fc:	fa03 f309 	lsl.w	r3, r3, r9
 8000700:	4313      	orrs	r3, r2
 8000702:	60c3      	str	r3, [r0, #12]
 8000704:	00f3      	lsls	r3, r6, #3
 8000706:	d5ce      	bpl.n	80006a6 <HAL_GPIO_Init+0x16>
 8000708:	2300      	movs	r3, #0
 800070a:	9301      	str	r3, [sp, #4]
 800070c:	f8d8 3044 	ldr.w	r3, [r8, #68]	; 0x44
 8000710:	f443 4380 	orr.w	r3, r3, #16384	; 0x4000
 8000714:	f8c8 3044 	str.w	r3, [r8, #68]	; 0x44
 8000718:	f8d8 3044 	ldr.w	r3, [r8, #68]	; 0x44
 800071c:	f025 0203 	bic.w	r2, r5, #3
 8000720:	f102 4280 	add.w	r2, r2, #1073741824	; 0x40000000
 8000724:	f403 4380 	and.w	r3, r3, #16384	; 0x4000
 8000728:	f502 329c 	add.w	r2, r2, #79872	; 0x13800
 800072c:	9301      	str	r3, [sp, #4]
 800072e:	f005 0703 	and.w	r7, r5, #3
 8000732:	9b01      	ldr	r3, [sp, #4]
 8000734:	f8d2 9008 	ldr.w	r9, [r2, #8]
 8000738:	00bf      	lsls	r7, r7, #2
 800073a:	230f      	movs	r3, #15
 800073c:	40bb      	lsls	r3, r7
 800073e:	ea29 0a03 	bic.w	sl, r9, r3
 8000742:	4b67      	ldr	r3, [pc, #412]	; (80008e0 <HAL_GPIO_Init+0x250>)
 8000744:	4298      	cmp	r0, r3
 8000746:	d02e      	beq.n	80007a6 <HAL_GPIO_Init+0x116>
 8000748:	f503 6380 	add.w	r3, r3, #1024	; 0x400
 800074c:	4298      	cmp	r0, r3
 800074e:	f000 808e 	beq.w	800086e <HAL_GPIO_Init+0x1de>
 8000752:	4b64      	ldr	r3, [pc, #400]	; (80008e4 <HAL_GPIO_Init+0x254>)
 8000754:	4298      	cmp	r0, r3
 8000756:	f000 8091 	beq.w	800087c <HAL_GPIO_Init+0x1ec>
 800075a:	4b63      	ldr	r3, [pc, #396]	; (80008e8 <HAL_GPIO_Init+0x258>)
 800075c:	4298      	cmp	r0, r3
 800075e:	f000 8094 	beq.w	800088a <HAL_GPIO_Init+0x1fa>
 8000762:	4b62      	ldr	r3, [pc, #392]	; (80008ec <HAL_GPIO_Init+0x25c>)
 8000764:	4298      	cmp	r0, r3
 8000766:	f000 8097 	beq.w	8000898 <HAL_GPIO_Init+0x208>
 800076a:	4b61      	ldr	r3, [pc, #388]	; (80008f0 <HAL_GPIO_Init+0x260>)
 800076c:	4298      	cmp	r0, r3
 800076e:	f000 80a1 	beq.w	80008b4 <HAL_GPIO_Init+0x224>
 8000772:	4b60      	ldr	r3, [pc, #384]	; (80008f4 <HAL_GPIO_Init+0x264>)
 8000774:	4298      	cmp	r0, r3
 8000776:	f000 80a4 	beq.w	80008c2 <HAL_GPIO_Init+0x232>
 800077a:	f8df 9184 	ldr.w	r9, [pc, #388]	; 8000900 <HAL_GPIO_Init+0x270>
 800077e:	4548      	cmp	r0, r9
 8000780:	f000 8091 	beq.w	80008a6 <HAL_GPIO_Init+0x216>
 8000784:	f8df 917c 	ldr.w	r9, [pc, #380]	; 8000904 <HAL_GPIO_Init+0x274>
 8000788:	4548      	cmp	r0, r9
 800078a:	f000 80a1 	beq.w	80008d0 <HAL_GPIO_Init+0x240>
 800078e:	f8df 9178 	ldr.w	r9, [pc, #376]	; 8000908 <HAL_GPIO_Init+0x278>
 8000792:	4548      	cmp	r0, r9
 8000794:	bf0c      	ite	eq
 8000796:	f04f 0909 	moveq.w	r9, #9
 800079a:	f04f 090a 	movne.w	r9, #10
 800079e:	fa09 f707 	lsl.w	r7, r9, r7
 80007a2:	ea4a 0a07 	orr.w	sl, sl, r7
 80007a6:	f8c2 a008 	str.w	sl, [r2, #8]
 80007aa:	f8dc 3000 	ldr.w	r3, [ip]
 80007ae:	43e2      	mvns	r2, r4
 80007b0:	03f7      	lsls	r7, r6, #15
 80007b2:	bf54      	ite	pl
 80007b4:	4013      	andpl	r3, r2
 80007b6:	4323      	orrmi	r3, r4
 80007b8:	f8cc 3000 	str.w	r3, [ip]
 80007bc:	f8dc 3004 	ldr.w	r3, [ip, #4]
 80007c0:	03b7      	lsls	r7, r6, #14
 80007c2:	bf54      	ite	pl
 80007c4:	4013      	andpl	r3, r2
 80007c6:	4323      	orrmi	r3, r4
 80007c8:	f8cc 3004 	str.w	r3, [ip, #4]
 80007cc:	f8dc 3008 	ldr.w	r3, [ip, #8]
 80007d0:	02f7      	lsls	r7, r6, #11
 80007d2:	bf54      	ite	pl
 80007d4:	4013      	andpl	r3, r2
 80007d6:	4323      	orrmi	r3, r4
 80007d8:	f8cc 3008 	str.w	r3, [ip, #8]
 80007dc:	f8dc 300c 	ldr.w	r3, [ip, #12]
 80007e0:	02b6      	lsls	r6, r6, #10
 80007e2:	f105 0501 	add.w	r5, r5, #1
 80007e6:	bf54      	ite	pl
 80007e8:	4013      	andpl	r3, r2
 80007ea:	4323      	orrmi	r3, r4
 80007ec:	2d10      	cmp	r5, #16
 80007ee:	f8cc 300c 	str.w	r3, [ip, #12]
 80007f2:	f47f af5c 	bne.w	80006ae <HAL_GPIO_Init+0x1e>
 80007f6:	b003      	add	sp, #12
 80007f8:	e8bd 8ff0 	ldmia.w	sp!, {r4, r5, r6, r7, r8, r9, sl, fp, pc}
 80007fc:	ea4f 09d5 	mov.w	r9, r5, lsr #3
 8000800:	eb00 0989 	add.w	r9, r0, r9, lsl #2
 8000804:	f005 0707 	and.w	r7, r5, #7
 8000808:	f8d9 2020 	ldr.w	r2, [r9, #32]
 800080c:	00bf      	lsls	r7, r7, #2
 800080e:	f04f 0b0f 	mov.w	fp, #15
 8000812:	fa0b fb07 	lsl.w	fp, fp, r7
 8000816:	ea22 0a0b 	bic.w	sl, r2, fp
 800081a:	690a      	ldr	r2, [r1, #16]
 800081c:	40ba      	lsls	r2, r7
 800081e:	ea42 020a 	orr.w	r2, r2, sl
 8000822:	f8c9 2020 	str.w	r2, [r9, #32]
 8000826:	ea4f 0945 	mov.w	r9, r5, lsl #1
 800082a:	2203      	movs	r2, #3
 800082c:	f8d0 a000 	ldr.w	sl, [r0]
 8000830:	fa02 f209 	lsl.w	r2, r2, r9
 8000834:	43d2      	mvns	r2, r2
 8000836:	f006 0703 	and.w	r7, r6, #3
 800083a:	ea02 0a0a 	and.w	sl, r2, sl
 800083e:	fa07 f709 	lsl.w	r7, r7, r9
 8000842:	ea47 070a 	orr.w	r7, r7, sl
 8000846:	6007      	str	r7, [r0, #0]
 8000848:	6887      	ldr	r7, [r0, #8]
 800084a:	ea07 0a02 	and.w	sl, r7, r2
 800084e:	68cf      	ldr	r7, [r1, #12]
 8000850:	fa07 f709 	lsl.w	r7, r7, r9
 8000854:	ea47 070a 	orr.w	r7, r7, sl
 8000858:	6087      	str	r7, [r0, #8]
 800085a:	f8d0 a004 	ldr.w	sl, [r0, #4]
 800085e:	f3c6 1700 	ubfx	r7, r6, #4, #1
 8000862:	ea2a 0303 	bic.w	r3, sl, r3
 8000866:	40af      	lsls	r7, r5
 8000868:	431f      	orrs	r7, r3
 800086a:	6047      	str	r7, [r0, #4]
 800086c:	e743      	b.n	80006f6 <HAL_GPIO_Init+0x66>
 800086e:	f04f 0901 	mov.w	r9, #1
 8000872:	fa09 f707 	lsl.w	r7, r9, r7
 8000876:	ea4a 0a07 	orr.w	sl, sl, r7
 800087a:	e794      	b.n	80007a6 <HAL_GPIO_Init+0x116>
 800087c:	f04f 0902 	mov.w	r9, #2
 8000880:	fa09 f707 	lsl.w	r7, r9, r7
 8000884:	ea4a 0a07 	orr.w	sl, sl, r7
 8000888:	e78d      	b.n	80007a6 <HAL_GPIO_Init+0x116>
 800088a:	f04f 0903 	mov.w	r9, #3
 800088e:	fa09 f707 	lsl.w	r7, r9, r7
 8000892:	ea4a 0a07 	orr.w	sl, sl, r7
 8000896:	e786      	b.n	80007a6 <HAL_GPIO_Init+0x116>
 8000898:	f04f 0904 	mov.w	r9, #4
 800089c:	fa09 f707 	lsl.w	r7, r9, r7
 80008a0:	ea4a 0a07 	orr.w	sl, sl, r7
 80008a4:	e77f      	b.n	80007a6 <HAL_GPIO_Init+0x116>
 80008a6:	f04f 0907 	mov.w	r9, #7
 80008aa:	fa09 f707 	lsl.w	r7, r9, r7
 80008ae:	ea4a 0a07 	orr.w	sl, sl, r7
 80008b2:	e778      	b.n	80007a6 <HAL_GPIO_Init+0x116>
 80008b4:	f04f 0905 	mov.w	r9, #5
 80008b8:	fa09 f707 	lsl.w	r7, r9, r7
 80008bc:	ea4a 0a07 	orr.w	sl, sl, r7
 80008c0:	e771      	b.n	80007a6 <HAL_GPIO_Init+0x116>
 80008c2:	f04f 0906 	mov.w	r9, #6
 80008c6:	fa09 f707 	lsl.w	r7, r9, r7
 80008ca:	ea4a 0a07 	orr.w	sl, sl, r7
 80008ce:	e76a      	b.n	80007a6 <HAL_GPIO_Init+0x116>
 80008d0:	f04f 0908 	mov.w	r9, #8
 80008d4:	fa09 f707 	lsl.w	r7, r9, r7
 80008d8:	ea4a 0a07 	orr.w	sl, sl, r7
 80008dc:	e763      	b.n	80007a6 <HAL_GPIO_Init+0x116>
 80008de:	bf00      	nop
 80008e0:	40020000 	.word	0x40020000
 80008e4:	40020800 	.word	0x40020800
 80008e8:	40020c00 	.word	0x40020c00
 80008ec:	40021000 	.word	0x40021000
 80008f0:	40021400 	.word	0x40021400
 80008f4:	40021800 	.word	0x40021800
 80008f8:	40013c00 	.word	0x40013c00
 80008fc:	40023800 	.word	0x40023800
 8000900:	40021c00 	.word	0x40021c00
 8000904:	40022000 	.word	0x40022000
 8000908:	40022400 	.word	0x40022400

0800090c <HAL_GPIO_WritePin>:
 800090c:	b902      	cbnz	r2, 8000910 <HAL_GPIO_WritePin+0x4>
 800090e:	0409      	lsls	r1, r1, #16
 8000910:	6181      	str	r1, [r0, #24]
 8000912:	4770      	bx	lr

08000914 <HAL_GPIO_TogglePin>:
 8000914:	6943      	ldr	r3, [r0, #20]
 8000916:	ea31 0303 	bics.w	r3, r1, r3
 800091a:	bf08      	it	eq
 800091c:	0409      	lsleq	r1, r1, #16
 800091e:	6181      	str	r1, [r0, #24]
 8000920:	4770      	bx	lr
 8000922:	bf00      	nop

08000924 <HAL_I2C_Init>:
 8000924:	2800      	cmp	r0, #0
 8000926:	f000 8097 	beq.w	8000a58 <HAL_I2C_Init+0x134>
 800092a:	b5f8      	push	{r3, r4, r5, r6, r7, lr}
 800092c:	f890 303d 	ldrb.w	r3, [r0, #61]	; 0x3d
 8000930:	4604      	mov	r4, r0
 8000932:	f003 02ff 	and.w	r2, r3, #255	; 0xff
 8000936:	2b00      	cmp	r3, #0
 8000938:	f000 8087 	beq.w	8000a4a <HAL_I2C_Init+0x126>
 800093c:	6822      	ldr	r2, [r4, #0]
 800093e:	2324      	movs	r3, #36	; 0x24
 8000940:	f884 303d 	strb.w	r3, [r4, #61]	; 0x3d
 8000944:	6813      	ldr	r3, [r2, #0]
 8000946:	f023 0301 	bic.w	r3, r3, #1
 800094a:	6013      	str	r3, [r2, #0]
 800094c:	f000 fcb4 	bl	80012b8 <HAL_RCC_GetPCLK1Freq>
 8000950:	6861      	ldr	r1, [r4, #4]
 8000952:	4b4b      	ldr	r3, [pc, #300]	; (8000a80 <HAL_I2C_Init+0x15c>)
 8000954:	4299      	cmp	r1, r3
 8000956:	d84b      	bhi.n	80009f0 <HAL_I2C_Init+0xcc>
 8000958:	4b4a      	ldr	r3, [pc, #296]	; (8000a84 <HAL_I2C_Init+0x160>)
 800095a:	4298      	cmp	r0, r3
 800095c:	d97a      	bls.n	8000a54 <HAL_I2C_Init+0x130>
 800095e:	6822      	ldr	r2, [r4, #0]
 8000960:	4b49      	ldr	r3, [pc, #292]	; (8000a88 <HAL_I2C_Init+0x164>)
 8000962:	6855      	ldr	r5, [r2, #4]
 8000964:	fba3 6300 	umull	r6, r3, r3, r0
 8000968:	0c9b      	lsrs	r3, r3, #18
 800096a:	f025 053f 	bic.w	r5, r5, #63	; 0x3f
 800096e:	431d      	orrs	r5, r3
 8000970:	6055      	str	r5, [r2, #4]
 8000972:	6a15      	ldr	r5, [r2, #32]
 8000974:	3301      	adds	r3, #1
 8000976:	f025 053f 	bic.w	r5, r5, #63	; 0x3f
 800097a:	432b      	orrs	r3, r5
 800097c:	6213      	str	r3, [r2, #32]
 800097e:	69d5      	ldr	r5, [r2, #28]
 8000980:	0049      	lsls	r1, r1, #1
 8000982:	1e43      	subs	r3, r0, #1
 8000984:	fbb3 f3f1 	udiv	r3, r3, r1
 8000988:	3301      	adds	r3, #1
 800098a:	f3c3 030b 	ubfx	r3, r3, #0, #12
 800098e:	f425 454f 	bic.w	r5, r5, #52992	; 0xcf00
 8000992:	2b04      	cmp	r3, #4
 8000994:	bf38      	it	cc
 8000996:	2304      	movcc	r3, #4
 8000998:	f025 05ff 	bic.w	r5, r5, #255	; 0xff
 800099c:	432b      	orrs	r3, r5
 800099e:	61d3      	str	r3, [r2, #28]
 80009a0:	e9d4 3507 	ldrd	r3, r5, [r4, #28]
 80009a4:	6810      	ldr	r0, [r2, #0]
 80009a6:	6921      	ldr	r1, [r4, #16]
 80009a8:	f020 00c0 	bic.w	r0, r0, #192	; 0xc0
 80009ac:	432b      	orrs	r3, r5
 80009ae:	4303      	orrs	r3, r0
 80009b0:	6013      	str	r3, [r2, #0]
 80009b2:	6890      	ldr	r0, [r2, #8]
 80009b4:	68e5      	ldr	r5, [r4, #12]
 80009b6:	6963      	ldr	r3, [r4, #20]
 80009b8:	f420 4003 	bic.w	r0, r0, #33536	; 0x8300
 80009bc:	f020 00ff 	bic.w	r0, r0, #255	; 0xff
 80009c0:	4329      	orrs	r1, r5
 80009c2:	4301      	orrs	r1, r0
 80009c4:	6091      	str	r1, [r2, #8]
 80009c6:	68d1      	ldr	r1, [r2, #12]
 80009c8:	69a0      	ldr	r0, [r4, #24]
 80009ca:	f021 01ff 	bic.w	r1, r1, #255	; 0xff
 80009ce:	4303      	orrs	r3, r0
 80009d0:	430b      	orrs	r3, r1
 80009d2:	60d3      	str	r3, [r2, #12]
 80009d4:	6811      	ldr	r1, [r2, #0]
 80009d6:	2300      	movs	r3, #0
 80009d8:	f041 0101 	orr.w	r1, r1, #1
 80009dc:	2520      	movs	r5, #32
 80009de:	6011      	str	r1, [r2, #0]
 80009e0:	4618      	mov	r0, r3
 80009e2:	6423      	str	r3, [r4, #64]	; 0x40
 80009e4:	f884 503d 	strb.w	r5, [r4, #61]	; 0x3d
 80009e8:	6323      	str	r3, [r4, #48]	; 0x30
 80009ea:	f884 303e 	strb.w	r3, [r4, #62]	; 0x3e
 80009ee:	bdf8      	pop	{r3, r4, r5, r6, r7, pc}
 80009f0:	4b26      	ldr	r3, [pc, #152]	; (8000a8c <HAL_I2C_Init+0x168>)
 80009f2:	4298      	cmp	r0, r3
 80009f4:	d92e      	bls.n	8000a54 <HAL_I2C_Init+0x130>
 80009f6:	6822      	ldr	r2, [r4, #0]
 80009f8:	4b23      	ldr	r3, [pc, #140]	; (8000a88 <HAL_I2C_Init+0x164>)
 80009fa:	6856      	ldr	r6, [r2, #4]
 80009fc:	4f24      	ldr	r7, [pc, #144]	; (8000a90 <HAL_I2C_Init+0x16c>)
 80009fe:	fba3 5300 	umull	r5, r3, r3, r0
 8000a02:	0c9d      	lsrs	r5, r3, #18
 8000a04:	f026 063f 	bic.w	r6, r6, #63	; 0x3f
 8000a08:	432e      	orrs	r6, r5
 8000a0a:	f44f 7396 	mov.w	r3, #300	; 0x12c
 8000a0e:	6056      	str	r6, [r2, #4]
 8000a10:	fb03 f305 	mul.w	r3, r3, r5
 8000a14:	fba7 5303 	umull	r5, r3, r7, r3
 8000a18:	6a15      	ldr	r5, [r2, #32]
 8000a1a:	68a6      	ldr	r6, [r4, #8]
 8000a1c:	099b      	lsrs	r3, r3, #6
 8000a1e:	f025 053f 	bic.w	r5, r5, #63	; 0x3f
 8000a22:	3301      	adds	r3, #1
 8000a24:	432b      	orrs	r3, r5
 8000a26:	6213      	str	r3, [r2, #32]
 8000a28:	69d5      	ldr	r5, [r2, #28]
 8000a2a:	f425 454f 	bic.w	r5, r5, #52992	; 0xcf00
 8000a2e:	3801      	subs	r0, #1
 8000a30:	f025 05ff 	bic.w	r5, r5, #255	; 0xff
 8000a34:	b996      	cbnz	r6, 8000a5c <HAL_I2C_Init+0x138>
 8000a36:	eb01 0141 	add.w	r1, r1, r1, lsl #1
 8000a3a:	fbb0 f0f1 	udiv	r0, r0, r1
 8000a3e:	3001      	adds	r0, #1
 8000a40:	f3c0 000b 	ubfx	r0, r0, #0, #12
 8000a44:	b9c0      	cbnz	r0, 8000a78 <HAL_I2C_Init+0x154>
 8000a46:	2301      	movs	r3, #1
 8000a48:	e7a8      	b.n	800099c <HAL_I2C_Init+0x78>
 8000a4a:	f880 203c 	strb.w	r2, [r0, #60]	; 0x3c
 8000a4e:	f000 fea3 	bl	8001798 <HAL_I2C_MspInit>
 8000a52:	e773      	b.n	800093c <HAL_I2C_Init+0x18>
 8000a54:	2001      	movs	r0, #1
 8000a56:	bdf8      	pop	{r3, r4, r5, r6, r7, pc}
 8000a58:	2001      	movs	r0, #1
 8000a5a:	4770      	bx	lr
 8000a5c:	eb01 0181 	add.w	r1, r1, r1, lsl #2
 8000a60:	eb01 0181 	add.w	r1, r1, r1, lsl #2
 8000a64:	fbb0 f0f1 	udiv	r0, r0, r1
 8000a68:	3001      	adds	r0, #1
 8000a6a:	f3c0 000b 	ubfx	r0, r0, #0, #12
 8000a6e:	2800      	cmp	r0, #0
 8000a70:	d0e9      	beq.n	8000a46 <HAL_I2C_Init+0x122>
 8000a72:	f440 4340 	orr.w	r3, r0, #49152	; 0xc000
 8000a76:	e791      	b.n	800099c <HAL_I2C_Init+0x78>
 8000a78:	f440 4300 	orr.w	r3, r0, #32768	; 0x8000
 8000a7c:	e78e      	b.n	800099c <HAL_I2C_Init+0x78>
 8000a7e:	bf00      	nop
 8000a80:	000186a0 	.word	0x000186a0
 8000a84:	001e847f 	.word	0x001e847f
 8000a88:	431bde83 	.word	0x431bde83
 8000a8c:	003d08ff 	.word	0x003d08ff
 8000a90:	10624dd3 	.word	0x10624dd3

08000a94 <HAL_I2C_IsDeviceReady>:
 8000a94:	e92d 4ff0 	stmdb	sp!, {r4, r5, r6, r7, r8, r9, sl, fp, lr}
 8000a98:	4605      	mov	r5, r0
 8000a9a:	b083      	sub	sp, #12
 8000a9c:	461f      	mov	r7, r3
 8000a9e:	468a      	mov	sl, r1
 8000aa0:	4693      	mov	fp, r2
 8000aa2:	f7ff fd6d 	bl	8000580 <HAL_GetTick>
 8000aa6:	f895 303d 	ldrb.w	r3, [r5, #61]	; 0x3d
 8000aaa:	2b20      	cmp	r3, #32
 8000aac:	d003      	beq.n	8000ab6 <HAL_I2C_IsDeviceReady+0x22>
 8000aae:	2002      	movs	r0, #2
 8000ab0:	b003      	add	sp, #12
 8000ab2:	e8bd 8ff0 	ldmia.w	sp!, {r4, r5, r6, r7, r8, r9, sl, fp, pc}
 8000ab6:	4606      	mov	r6, r0
 8000ab8:	e005      	b.n	8000ac6 <HAL_I2C_IsDeviceReady+0x32>
 8000aba:	f7ff fd61 	bl	8000580 <HAL_GetTick>
 8000abe:	1b80      	subs	r0, r0, r6
 8000ac0:	2819      	cmp	r0, #25
 8000ac2:	f200 80ad 	bhi.w	8000c20 <HAL_I2C_IsDeviceReady+0x18c>
 8000ac6:	682b      	ldr	r3, [r5, #0]
 8000ac8:	699a      	ldr	r2, [r3, #24]
 8000aca:	43d2      	mvns	r2, r2
 8000acc:	f012 0402 	ands.w	r4, r2, #2
 8000ad0:	d0f3      	beq.n	8000aba <HAL_I2C_IsDeviceReady+0x26>
 8000ad2:	f895 203c 	ldrb.w	r2, [r5, #60]	; 0x3c
 8000ad6:	2a01      	cmp	r2, #1
 8000ad8:	d0e9      	beq.n	8000aae <HAL_I2C_IsDeviceReady+0x1a>
 8000ada:	681a      	ldr	r2, [r3, #0]
 8000adc:	2101      	movs	r1, #1
 8000ade:	07d4      	lsls	r4, r2, #31
 8000ae0:	f885 103c 	strb.w	r1, [r5, #60]	; 0x3c
 8000ae4:	f140 8098 	bpl.w	8000c18 <HAL_I2C_IsDeviceReady+0x184>
 8000ae8:	681a      	ldr	r2, [r3, #0]
 8000aea:	496b      	ldr	r1, [pc, #428]	; (8000c98 <HAL_I2C_IsDeviceReady+0x204>)
 8000aec:	f422 6200 	bic.w	r2, r2, #2048	; 0x800
 8000af0:	601a      	str	r2, [r3, #0]
 8000af2:	2024      	movs	r0, #36	; 0x24
 8000af4:	2200      	movs	r2, #0
 8000af6:	f885 003d 	strb.w	r0, [r5, #61]	; 0x3d
 8000afa:	f00a 0afe 	and.w	sl, sl, #254	; 0xfe
 8000afe:	642a      	str	r2, [r5, #64]	; 0x40
 8000b00:	f04f 0901 	mov.w	r9, #1
 8000b04:	62e9      	str	r1, [r5, #44]	; 0x2c
 8000b06:	f04f 08a0 	mov.w	r8, #160	; 0xa0
 8000b0a:	681a      	ldr	r2, [r3, #0]
 8000b0c:	f442 7280 	orr.w	r2, r2, #256	; 0x100
 8000b10:	601a      	str	r2, [r3, #0]
 8000b12:	1c78      	adds	r0, r7, #1
 8000b14:	d165      	bne.n	8000be2 <HAL_I2C_IsDeviceReady+0x14e>
 8000b16:	695a      	ldr	r2, [r3, #20]
 8000b18:	07d1      	lsls	r1, r2, #31
 8000b1a:	d5fc      	bpl.n	8000b16 <HAL_I2C_IsDeviceReady+0x82>
 8000b1c:	f8c3 a010 	str.w	sl, [r3, #16]
 8000b20:	f7ff fd2e 	bl	8000580 <HAL_GetTick>
 8000b24:	682b      	ldr	r3, [r5, #0]
 8000b26:	4606      	mov	r6, r0
 8000b28:	695a      	ldr	r2, [r3, #20]
 8000b2a:	6959      	ldr	r1, [r3, #20]
 8000b2c:	f895 003d 	ldrb.w	r0, [r5, #61]	; 0x3d
 8000b30:	28a0      	cmp	r0, #160	; 0xa0
 8000b32:	f002 0202 	and.w	r2, r2, #2
 8000b36:	f401 6180 	and.w	r1, r1, #1024	; 0x400
 8000b3a:	d018      	beq.n	8000b6e <HAL_I2C_IsDeviceReady+0xda>
 8000b3c:	b9ba      	cbnz	r2, 8000b6e <HAL_I2C_IsDeviceReady+0xda>
 8000b3e:	b9b1      	cbnz	r1, 8000b6e <HAL_I2C_IsDeviceReady+0xda>
 8000b40:	2f00      	cmp	r7, #0
 8000b42:	d03e      	beq.n	8000bc2 <HAL_I2C_IsDeviceReady+0x12e>
 8000b44:	e001      	b.n	8000b4a <HAL_I2C_IsDeviceReady+0xb6>
 8000b46:	b992      	cbnz	r2, 8000b6e <HAL_I2C_IsDeviceReady+0xda>
 8000b48:	b989      	cbnz	r1, 8000b6e <HAL_I2C_IsDeviceReady+0xda>
 8000b4a:	f7ff fd19 	bl	8000580 <HAL_GetTick>
 8000b4e:	1b80      	subs	r0, r0, r6
 8000b50:	42b8      	cmp	r0, r7
 8000b52:	682b      	ldr	r3, [r5, #0]
 8000b54:	bf88      	it	hi
 8000b56:	f885 803d 	strbhi.w	r8, [r5, #61]	; 0x3d
 8000b5a:	695a      	ldr	r2, [r3, #20]
 8000b5c:	6959      	ldr	r1, [r3, #20]
 8000b5e:	f895 003d 	ldrb.w	r0, [r5, #61]	; 0x3d
 8000b62:	28a0      	cmp	r0, #160	; 0xa0
 8000b64:	f002 0202 	and.w	r2, r2, #2
 8000b68:	f401 6180 	and.w	r1, r1, #1024	; 0x400
 8000b6c:	d1eb      	bne.n	8000b46 <HAL_I2C_IsDeviceReady+0xb2>
 8000b6e:	2220      	movs	r2, #32
 8000b70:	f885 203d 	strb.w	r2, [r5, #61]	; 0x3d
 8000b74:	695a      	ldr	r2, [r3, #20]
 8000b76:	f012 0f02 	tst.w	r2, #2
 8000b7a:	681a      	ldr	r2, [r3, #0]
 8000b7c:	d16e      	bne.n	8000c5c <HAL_I2C_IsDeviceReady+0x1c8>
 8000b7e:	f442 7200 	orr.w	r2, r2, #512	; 0x200
 8000b82:	f46f 6180 	mvn.w	r1, #1024	; 0x400
 8000b86:	601a      	str	r2, [r3, #0]
 8000b88:	6159      	str	r1, [r3, #20]
 8000b8a:	e005      	b.n	8000b98 <HAL_I2C_IsDeviceReady+0x104>
 8000b8c:	f7ff fcf8 	bl	8000580 <HAL_GetTick>
 8000b90:	1b80      	subs	r0, r0, r6
 8000b92:	2819      	cmp	r0, #25
 8000b94:	d830      	bhi.n	8000bf8 <HAL_I2C_IsDeviceReady+0x164>
 8000b96:	682b      	ldr	r3, [r5, #0]
 8000b98:	699c      	ldr	r4, [r3, #24]
 8000b9a:	43e4      	mvns	r4, r4
 8000b9c:	f014 0402 	ands.w	r4, r4, #2
 8000ba0:	d0f4      	beq.n	8000b8c <HAL_I2C_IsDeviceReady+0xf8>
 8000ba2:	f109 0901 	add.w	r9, r9, #1
 8000ba6:	45d9      	cmp	r9, fp
 8000ba8:	d3af      	bcc.n	8000b0a <HAL_I2C_IsDeviceReady+0x76>
 8000baa:	2220      	movs	r2, #32
 8000bac:	2300      	movs	r3, #0
 8000bae:	f885 203d 	strb.w	r2, [r5, #61]	; 0x3d
 8000bb2:	f885 303c 	strb.w	r3, [r5, #60]	; 0x3c
 8000bb6:	2001      	movs	r0, #1
 8000bb8:	e77a      	b.n	8000ab0 <HAL_I2C_IsDeviceReady+0x1c>
 8000bba:	2a00      	cmp	r2, #0
 8000bbc:	d1d7      	bne.n	8000b6e <HAL_I2C_IsDeviceReady+0xda>
 8000bbe:	2900      	cmp	r1, #0
 8000bc0:	d1d5      	bne.n	8000b6e <HAL_I2C_IsDeviceReady+0xda>
 8000bc2:	f7ff fcdd 	bl	8000580 <HAL_GetTick>
 8000bc6:	682b      	ldr	r3, [r5, #0]
 8000bc8:	f885 803d 	strb.w	r8, [r5, #61]	; 0x3d
 8000bcc:	695a      	ldr	r2, [r3, #20]
 8000bce:	6959      	ldr	r1, [r3, #20]
 8000bd0:	f895 003d 	ldrb.w	r0, [r5, #61]	; 0x3d
 8000bd4:	28a0      	cmp	r0, #160	; 0xa0
 8000bd6:	f002 0202 	and.w	r2, r2, #2
 8000bda:	f401 6180 	and.w	r1, r1, #1024	; 0x400
 8000bde:	d1ec      	bne.n	8000bba <HAL_I2C_IsDeviceReady+0x126>
 8000be0:	e7c5      	b.n	8000b6e <HAL_I2C_IsDeviceReady+0xda>
 8000be2:	695a      	ldr	r2, [r3, #20]
 8000be4:	07d2      	lsls	r2, r2, #31
 8000be6:	d499      	bmi.n	8000b1c <HAL_I2C_IsDeviceReady+0x88>
 8000be8:	f7ff fcca 	bl	8000580 <HAL_GetTick>
 8000bec:	1b80      	subs	r0, r0, r6
 8000bee:	4287      	cmp	r7, r0
 8000bf0:	d323      	bcc.n	8000c3a <HAL_I2C_IsDeviceReady+0x1a6>
 8000bf2:	b317      	cbz	r7, 8000c3a <HAL_I2C_IsDeviceReady+0x1a6>
 8000bf4:	682b      	ldr	r3, [r5, #0]
 8000bf6:	e78c      	b.n	8000b12 <HAL_I2C_IsDeviceReady+0x7e>
 8000bf8:	2320      	movs	r3, #32
 8000bfa:	632c      	str	r4, [r5, #48]	; 0x30
 8000bfc:	f885 303d 	strb.w	r3, [r5, #61]	; 0x3d
 8000c00:	f885 403e 	strb.w	r4, [r5, #62]	; 0x3e
 8000c04:	6c2b      	ldr	r3, [r5, #64]	; 0x40
 8000c06:	f885 403c 	strb.w	r4, [r5, #60]	; 0x3c
 8000c0a:	f043 0320 	orr.w	r3, r3, #32
 8000c0e:	2001      	movs	r0, #1
 8000c10:	642b      	str	r3, [r5, #64]	; 0x40
 8000c12:	b003      	add	sp, #12
 8000c14:	e8bd 8ff0 	ldmia.w	sp!, {r4, r5, r6, r7, r8, r9, sl, fp, pc}
 8000c18:	681a      	ldr	r2, [r3, #0]
 8000c1a:	430a      	orrs	r2, r1
 8000c1c:	601a      	str	r2, [r3, #0]
 8000c1e:	e763      	b.n	8000ae8 <HAL_I2C_IsDeviceReady+0x54>
 8000c20:	2320      	movs	r3, #32
 8000c22:	632c      	str	r4, [r5, #48]	; 0x30
 8000c24:	f885 303d 	strb.w	r3, [r5, #61]	; 0x3d
 8000c28:	f885 403e 	strb.w	r4, [r5, #62]	; 0x3e
 8000c2c:	6c2b      	ldr	r3, [r5, #64]	; 0x40
 8000c2e:	f885 403c 	strb.w	r4, [r5, #60]	; 0x3c
 8000c32:	f043 0320 	orr.w	r3, r3, #32
 8000c36:	642b      	str	r3, [r5, #64]	; 0x40
 8000c38:	e739      	b.n	8000aae <HAL_I2C_IsDeviceReady+0x1a>
 8000c3a:	2200      	movs	r2, #0
 8000c3c:	2320      	movs	r3, #32
 8000c3e:	632a      	str	r2, [r5, #48]	; 0x30
 8000c40:	f885 303d 	strb.w	r3, [r5, #61]	; 0x3d
 8000c44:	f885 203e 	strb.w	r2, [r5, #62]	; 0x3e
 8000c48:	6c2b      	ldr	r3, [r5, #64]	; 0x40
 8000c4a:	f885 203c 	strb.w	r2, [r5, #60]	; 0x3c
 8000c4e:	f043 0320 	orr.w	r3, r3, #32
 8000c52:	2001      	movs	r0, #1
 8000c54:	642b      	str	r3, [r5, #64]	; 0x40
 8000c56:	b003      	add	sp, #12
 8000c58:	e8bd 8ff0 	ldmia.w	sp!, {r4, r5, r6, r7, r8, r9, sl, fp, pc}
 8000c5c:	f442 7200 	orr.w	r2, r2, #512	; 0x200
 8000c60:	2100      	movs	r1, #0
 8000c62:	601a      	str	r2, [r3, #0]
 8000c64:	9101      	str	r1, [sp, #4]
 8000c66:	695a      	ldr	r2, [r3, #20]
 8000c68:	9201      	str	r2, [sp, #4]
 8000c6a:	699a      	ldr	r2, [r3, #24]
 8000c6c:	9201      	str	r2, [sp, #4]
 8000c6e:	9a01      	ldr	r2, [sp, #4]
 8000c70:	e005      	b.n	8000c7e <HAL_I2C_IsDeviceReady+0x1ea>
 8000c72:	f7ff fc85 	bl	8000580 <HAL_GetTick>
 8000c76:	1b80      	subs	r0, r0, r6
 8000c78:	2819      	cmp	r0, #25
 8000c7a:	d8bd      	bhi.n	8000bf8 <HAL_I2C_IsDeviceReady+0x164>
 8000c7c:	682b      	ldr	r3, [r5, #0]
 8000c7e:	699b      	ldr	r3, [r3, #24]
 8000c80:	43db      	mvns	r3, r3
 8000c82:	f013 0402 	ands.w	r4, r3, #2
 8000c86:	d0f4      	beq.n	8000c72 <HAL_I2C_IsDeviceReady+0x1de>
 8000c88:	2320      	movs	r3, #32
 8000c8a:	2000      	movs	r0, #0
 8000c8c:	f885 303d 	strb.w	r3, [r5, #61]	; 0x3d
 8000c90:	f885 003c 	strb.w	r0, [r5, #60]	; 0x3c
 8000c94:	e70c      	b.n	8000ab0 <HAL_I2C_IsDeviceReady+0x1c>
 8000c96:	bf00      	nop
 8000c98:	ffff0000 	.word	0xffff0000

08000c9c <HAL_I2CEx_ConfigAnalogFilter>:
 8000c9c:	f890 203d 	ldrb.w	r2, [r0, #61]	; 0x3d
 8000ca0:	b2d2      	uxtb	r2, r2
 8000ca2:	2a20      	cmp	r2, #32
 8000ca4:	d11a      	bne.n	8000cdc <HAL_I2CEx_ConfigAnalogFilter+0x40>
 8000ca6:	6803      	ldr	r3, [r0, #0]
 8000ca8:	b410      	push	{r4}
 8000caa:	2424      	movs	r4, #36	; 0x24
 8000cac:	f880 403d 	strb.w	r4, [r0, #61]	; 0x3d
 8000cb0:	681c      	ldr	r4, [r3, #0]
 8000cb2:	f024 0401 	bic.w	r4, r4, #1
 8000cb6:	601c      	str	r4, [r3, #0]
 8000cb8:	6a5c      	ldr	r4, [r3, #36]	; 0x24
 8000cba:	f024 0410 	bic.w	r4, r4, #16
 8000cbe:	625c      	str	r4, [r3, #36]	; 0x24
 8000cc0:	6a5c      	ldr	r4, [r3, #36]	; 0x24
 8000cc2:	4321      	orrs	r1, r4
 8000cc4:	6259      	str	r1, [r3, #36]	; 0x24
 8000cc6:	6819      	ldr	r1, [r3, #0]
 8000cc8:	f85d 4b04 	ldr.w	r4, [sp], #4
 8000ccc:	f041 0101 	orr.w	r1, r1, #1
 8000cd0:	6019      	str	r1, [r3, #0]
 8000cd2:	2300      	movs	r3, #0
 8000cd4:	f880 203d 	strb.w	r2, [r0, #61]	; 0x3d
 8000cd8:	4618      	mov	r0, r3
 8000cda:	4770      	bx	lr
 8000cdc:	2302      	movs	r3, #2
 8000cde:	4618      	mov	r0, r3
 8000ce0:	4770      	bx	lr
 8000ce2:	bf00      	nop

08000ce4 <HAL_I2CEx_ConfigDigitalFilter>:
 8000ce4:	f890 303d 	ldrb.w	r3, [r0, #61]	; 0x3d
 8000ce8:	b2db      	uxtb	r3, r3
 8000cea:	2b20      	cmp	r3, #32
 8000cec:	d119      	bne.n	8000d22 <HAL_I2CEx_ConfigDigitalFilter+0x3e>
 8000cee:	b430      	push	{r4, r5}
 8000cf0:	2224      	movs	r2, #36	; 0x24
 8000cf2:	6804      	ldr	r4, [r0, #0]
 8000cf4:	f880 203d 	strb.w	r2, [r0, #61]	; 0x3d
 8000cf8:	6825      	ldr	r5, [r4, #0]
 8000cfa:	f025 0501 	bic.w	r5, r5, #1
 8000cfe:	6025      	str	r5, [r4, #0]
 8000d00:	6a65      	ldr	r5, [r4, #36]	; 0x24
 8000d02:	f64f 72f0 	movw	r2, #65520	; 0xfff0
 8000d06:	402a      	ands	r2, r5
 8000d08:	430a      	orrs	r2, r1
 8000d0a:	b292      	uxth	r2, r2
 8000d0c:	6262      	str	r2, [r4, #36]	; 0x24
 8000d0e:	6822      	ldr	r2, [r4, #0]
 8000d10:	f042 0201 	orr.w	r2, r2, #1
 8000d14:	6022      	str	r2, [r4, #0]
 8000d16:	2200      	movs	r2, #0
 8000d18:	f880 303d 	strb.w	r3, [r0, #61]	; 0x3d
 8000d1c:	bc30      	pop	{r4, r5}
 8000d1e:	4610      	mov	r0, r2
 8000d20:	4770      	bx	lr
 8000d22:	2202      	movs	r2, #2
 8000d24:	4610      	mov	r0, r2
 8000d26:	4770      	bx	lr

08000d28 <HAL_PWREx_EnableOverDrive>:
 8000d28:	b530      	push	{r4, r5, lr}
 8000d2a:	b083      	sub	sp, #12
 8000d2c:	4b19      	ldr	r3, [pc, #100]	; (8000d94 <HAL_PWREx_EnableOverDrive+0x6c>)
 8000d2e:	491a      	ldr	r1, [pc, #104]	; (8000d98 <HAL_PWREx_EnableOverDrive+0x70>)
 8000d30:	4c1a      	ldr	r4, [pc, #104]	; (8000d9c <HAL_PWREx_EnableOverDrive+0x74>)
 8000d32:	2200      	movs	r2, #0
 8000d34:	9201      	str	r2, [sp, #4]
 8000d36:	6c1a      	ldr	r2, [r3, #64]	; 0x40
 8000d38:	f042 5280 	orr.w	r2, r2, #268435456	; 0x10000000
 8000d3c:	641a      	str	r2, [r3, #64]	; 0x40
 8000d3e:	6c1b      	ldr	r3, [r3, #64]	; 0x40
 8000d40:	f003 5380 	and.w	r3, r3, #268435456	; 0x10000000
 8000d44:	9301      	str	r3, [sp, #4]
 8000d46:	2301      	movs	r3, #1
 8000d48:	9a01      	ldr	r2, [sp, #4]
 8000d4a:	600b      	str	r3, [r1, #0]
 8000d4c:	f7ff fc18 	bl	8000580 <HAL_GetTick>
 8000d50:	4605      	mov	r5, r0
 8000d52:	e005      	b.n	8000d60 <HAL_PWREx_EnableOverDrive+0x38>
 8000d54:	f7ff fc14 	bl	8000580 <HAL_GetTick>
 8000d58:	1b40      	subs	r0, r0, r5
 8000d5a:	f5b0 7f7a 	cmp.w	r0, #1000	; 0x3e8
 8000d5e:	d816      	bhi.n	8000d8e <HAL_PWREx_EnableOverDrive+0x66>
 8000d60:	6863      	ldr	r3, [r4, #4]
 8000d62:	03da      	lsls	r2, r3, #15
 8000d64:	d5f6      	bpl.n	8000d54 <HAL_PWREx_EnableOverDrive+0x2c>
 8000d66:	4b0e      	ldr	r3, [pc, #56]	; (8000da0 <HAL_PWREx_EnableOverDrive+0x78>)
 8000d68:	4c0c      	ldr	r4, [pc, #48]	; (8000d9c <HAL_PWREx_EnableOverDrive+0x74>)
 8000d6a:	2201      	movs	r2, #1
 8000d6c:	601a      	str	r2, [r3, #0]
 8000d6e:	f7ff fc07 	bl	8000580 <HAL_GetTick>
 8000d72:	4605      	mov	r5, r0
 8000d74:	e005      	b.n	8000d82 <HAL_PWREx_EnableOverDrive+0x5a>
 8000d76:	f7ff fc03 	bl	8000580 <HAL_GetTick>
 8000d7a:	1b40      	subs	r0, r0, r5
 8000d7c:	f5b0 7f7a 	cmp.w	r0, #1000	; 0x3e8
 8000d80:	d805      	bhi.n	8000d8e <HAL_PWREx_EnableOverDrive+0x66>
 8000d82:	6863      	ldr	r3, [r4, #4]
 8000d84:	039b      	lsls	r3, r3, #14
 8000d86:	d5f6      	bpl.n	8000d76 <HAL_PWREx_EnableOverDrive+0x4e>
 8000d88:	2000      	movs	r0, #0
 8000d8a:	b003      	add	sp, #12
 8000d8c:	bd30      	pop	{r4, r5, pc}
 8000d8e:	2003      	movs	r0, #3
 8000d90:	b003      	add	sp, #12
 8000d92:	bd30      	pop	{r4, r5, pc}
 8000d94:	40023800 	.word	0x40023800
 8000d98:	420e0040 	.word	0x420e0040
 8000d9c:	40007000 	.word	0x40007000
 8000da0:	420e0044 	.word	0x420e0044

08000da4 <HAL_RCC_OscConfig>:
 8000da4:	2800      	cmp	r0, #0
 8000da6:	f000 8132 	beq.w	800100e <HAL_RCC_OscConfig+0x26a>
 8000daa:	e92d 41f0 	stmdb	sp!, {r4, r5, r6, r7, r8, lr}
 8000dae:	6803      	ldr	r3, [r0, #0]
 8000db0:	07dd      	lsls	r5, r3, #31
 8000db2:	b082      	sub	sp, #8
 8000db4:	4604      	mov	r4, r0
 8000db6:	d52f      	bpl.n	8000e18 <HAL_RCC_OscConfig+0x74>
 8000db8:	49ac      	ldr	r1, [pc, #688]	; (800106c <HAL_RCC_OscConfig+0x2c8>)
 8000dba:	688a      	ldr	r2, [r1, #8]
 8000dbc:	f002 020c 	and.w	r2, r2, #12
 8000dc0:	2a04      	cmp	r2, #4
 8000dc2:	f000 80ea 	beq.w	8000f9a <HAL_RCC_OscConfig+0x1f6>
 8000dc6:	688a      	ldr	r2, [r1, #8]
 8000dc8:	f002 020c 	and.w	r2, r2, #12
 8000dcc:	2a08      	cmp	r2, #8
 8000dce:	f000 80e0 	beq.w	8000f92 <HAL_RCC_OscConfig+0x1ee>
 8000dd2:	6863      	ldr	r3, [r4, #4]
 8000dd4:	f5b3 3f80 	cmp.w	r3, #65536	; 0x10000
 8000dd8:	f000 80e9 	beq.w	8000fae <HAL_RCC_OscConfig+0x20a>
 8000ddc:	f5b3 2fa0 	cmp.w	r3, #327680	; 0x50000
 8000de0:	f000 8154 	beq.w	800108c <HAL_RCC_OscConfig+0x2e8>
 8000de4:	4da1      	ldr	r5, [pc, #644]	; (800106c <HAL_RCC_OscConfig+0x2c8>)
 8000de6:	682a      	ldr	r2, [r5, #0]
 8000de8:	f422 3280 	bic.w	r2, r2, #65536	; 0x10000
 8000dec:	602a      	str	r2, [r5, #0]
 8000dee:	682a      	ldr	r2, [r5, #0]
 8000df0:	f422 2280 	bic.w	r2, r2, #262144	; 0x40000
 8000df4:	602a      	str	r2, [r5, #0]
 8000df6:	2b00      	cmp	r3, #0
 8000df8:	f040 80de 	bne.w	8000fb8 <HAL_RCC_OscConfig+0x214>
 8000dfc:	f7ff fbc0 	bl	8000580 <HAL_GetTick>
 8000e00:	4606      	mov	r6, r0
 8000e02:	e005      	b.n	8000e10 <HAL_RCC_OscConfig+0x6c>
 8000e04:	f7ff fbbc 	bl	8000580 <HAL_GetTick>
 8000e08:	1b80      	subs	r0, r0, r6
 8000e0a:	2864      	cmp	r0, #100	; 0x64
 8000e0c:	f200 80f2 	bhi.w	8000ff4 <HAL_RCC_OscConfig+0x250>
 8000e10:	682b      	ldr	r3, [r5, #0]
 8000e12:	039b      	lsls	r3, r3, #14
 8000e14:	d4f6      	bmi.n	8000e04 <HAL_RCC_OscConfig+0x60>
 8000e16:	6823      	ldr	r3, [r4, #0]
 8000e18:	079f      	lsls	r7, r3, #30
 8000e1a:	d475      	bmi.n	8000f08 <HAL_RCC_OscConfig+0x164>
 8000e1c:	071a      	lsls	r2, r3, #28
 8000e1e:	d515      	bpl.n	8000e4c <HAL_RCC_OscConfig+0xa8>
 8000e20:	6963      	ldr	r3, [r4, #20]
 8000e22:	2b00      	cmp	r3, #0
 8000e24:	f000 80a5 	beq.w	8000f72 <HAL_RCC_OscConfig+0x1ce>
 8000e28:	4b91      	ldr	r3, [pc, #580]	; (8001070 <HAL_RCC_OscConfig+0x2cc>)
 8000e2a:	4d90      	ldr	r5, [pc, #576]	; (800106c <HAL_RCC_OscConfig+0x2c8>)
 8000e2c:	2201      	movs	r2, #1
 8000e2e:	601a      	str	r2, [r3, #0]
 8000e30:	f7ff fba6 	bl	8000580 <HAL_GetTick>
 8000e34:	4606      	mov	r6, r0
 8000e36:	e005      	b.n	8000e44 <HAL_RCC_OscConfig+0xa0>
 8000e38:	f7ff fba2 	bl	8000580 <HAL_GetTick>
 8000e3c:	1b80      	subs	r0, r0, r6
 8000e3e:	2802      	cmp	r0, #2
 8000e40:	f200 80d8 	bhi.w	8000ff4 <HAL_RCC_OscConfig+0x250>
 8000e44:	6f6b      	ldr	r3, [r5, #116]	; 0x74
 8000e46:	079b      	lsls	r3, r3, #30
 8000e48:	d5f6      	bpl.n	8000e38 <HAL_RCC_OscConfig+0x94>
 8000e4a:	6823      	ldr	r3, [r4, #0]
 8000e4c:	0758      	lsls	r0, r3, #29
 8000e4e:	d53b      	bpl.n	8000ec8 <HAL_RCC_OscConfig+0x124>
 8000e50:	4a86      	ldr	r2, [pc, #536]	; (800106c <HAL_RCC_OscConfig+0x2c8>)
 8000e52:	6c13      	ldr	r3, [r2, #64]	; 0x40
 8000e54:	f013 5380 	ands.w	r3, r3, #268435456	; 0x10000000
 8000e58:	f040 80db 	bne.w	8001012 <HAL_RCC_OscConfig+0x26e>
 8000e5c:	9301      	str	r3, [sp, #4]
 8000e5e:	6c13      	ldr	r3, [r2, #64]	; 0x40
 8000e60:	f043 5380 	orr.w	r3, r3, #268435456	; 0x10000000
 8000e64:	6413      	str	r3, [r2, #64]	; 0x40
 8000e66:	6c13      	ldr	r3, [r2, #64]	; 0x40
 8000e68:	f003 5380 	and.w	r3, r3, #268435456	; 0x10000000
 8000e6c:	9301      	str	r3, [sp, #4]
 8000e6e:	9b01      	ldr	r3, [sp, #4]
 8000e70:	2601      	movs	r6, #1
 8000e72:	4d80      	ldr	r5, [pc, #512]	; (8001074 <HAL_RCC_OscConfig+0x2d0>)
 8000e74:	682a      	ldr	r2, [r5, #0]
 8000e76:	05d1      	lsls	r1, r2, #23
 8000e78:	f140 80ac 	bpl.w	8000fd4 <HAL_RCC_OscConfig+0x230>
 8000e7c:	68a3      	ldr	r3, [r4, #8]
 8000e7e:	2b01      	cmp	r3, #1
 8000e80:	f000 80c9 	beq.w	8001016 <HAL_RCC_OscConfig+0x272>
 8000e84:	2b05      	cmp	r3, #5
 8000e86:	f000 810b 	beq.w	80010a0 <HAL_RCC_OscConfig+0x2fc>
 8000e8a:	4d78      	ldr	r5, [pc, #480]	; (800106c <HAL_RCC_OscConfig+0x2c8>)
 8000e8c:	6f2a      	ldr	r2, [r5, #112]	; 0x70
 8000e8e:	f022 0201 	bic.w	r2, r2, #1
 8000e92:	672a      	str	r2, [r5, #112]	; 0x70
 8000e94:	6f2a      	ldr	r2, [r5, #112]	; 0x70
 8000e96:	f022 0204 	bic.w	r2, r2, #4
 8000e9a:	672a      	str	r2, [r5, #112]	; 0x70
 8000e9c:	2b00      	cmp	r3, #0
 8000e9e:	f040 80bf 	bne.w	8001020 <HAL_RCC_OscConfig+0x27c>
 8000ea2:	f7ff fb6d 	bl	8000580 <HAL_GetTick>
 8000ea6:	f241 3788 	movw	r7, #5000	; 0x1388
 8000eaa:	4680      	mov	r8, r0
 8000eac:	e006      	b.n	8000ebc <HAL_RCC_OscConfig+0x118>
 8000eae:	f7ff fb67 	bl	8000580 <HAL_GetTick>
 8000eb2:	eba0 0008 	sub.w	r0, r0, r8
 8000eb6:	42b8      	cmp	r0, r7
 8000eb8:	f200 809c 	bhi.w	8000ff4 <HAL_RCC_OscConfig+0x250>
 8000ebc:	6f2b      	ldr	r3, [r5, #112]	; 0x70
 8000ebe:	0798      	lsls	r0, r3, #30
 8000ec0:	d4f5      	bmi.n	8000eae <HAL_RCC_OscConfig+0x10a>
 8000ec2:	2e00      	cmp	r6, #0
 8000ec4:	f040 80dc 	bne.w	8001080 <HAL_RCC_OscConfig+0x2dc>
 8000ec8:	69a2      	ldr	r2, [r4, #24]
 8000eca:	b1ca      	cbz	r2, 8000f00 <HAL_RCC_OscConfig+0x15c>
 8000ecc:	4d67      	ldr	r5, [pc, #412]	; (800106c <HAL_RCC_OscConfig+0x2c8>)
 8000ece:	68a9      	ldr	r1, [r5, #8]
 8000ed0:	f001 010c 	and.w	r1, r1, #12
 8000ed4:	2908      	cmp	r1, #8
 8000ed6:	d048      	beq.n	8000f6a <HAL_RCC_OscConfig+0x1c6>
 8000ed8:	2a02      	cmp	r2, #2
 8000eda:	4a67      	ldr	r2, [pc, #412]	; (8001078 <HAL_RCC_OscConfig+0x2d4>)
 8000edc:	f04f 0100 	mov.w	r1, #0
 8000ee0:	6011      	str	r1, [r2, #0]
 8000ee2:	f000 80e7 	beq.w	80010b4 <HAL_RCC_OscConfig+0x310>
 8000ee6:	f7ff fb4b 	bl	8000580 <HAL_GetTick>
 8000eea:	462c      	mov	r4, r5
 8000eec:	4605      	mov	r5, r0
 8000eee:	e004      	b.n	8000efa <HAL_RCC_OscConfig+0x156>
 8000ef0:	f7ff fb46 	bl	8000580 <HAL_GetTick>
 8000ef4:	1b40      	subs	r0, r0, r5
 8000ef6:	2802      	cmp	r0, #2
 8000ef8:	d87c      	bhi.n	8000ff4 <HAL_RCC_OscConfig+0x250>
 8000efa:	6823      	ldr	r3, [r4, #0]
 8000efc:	019b      	lsls	r3, r3, #6
 8000efe:	d4f7      	bmi.n	8000ef0 <HAL_RCC_OscConfig+0x14c>
 8000f00:	2000      	movs	r0, #0
 8000f02:	b002      	add	sp, #8
 8000f04:	e8bd 81f0 	ldmia.w	sp!, {r4, r5, r6, r7, r8, pc}
 8000f08:	4a58      	ldr	r2, [pc, #352]	; (800106c <HAL_RCC_OscConfig+0x2c8>)
 8000f0a:	6891      	ldr	r1, [r2, #8]
 8000f0c:	f011 0f0c 	tst.w	r1, #12
 8000f10:	d024      	beq.n	8000f5c <HAL_RCC_OscConfig+0x1b8>
 8000f12:	6891      	ldr	r1, [r2, #8]
 8000f14:	f001 010c 	and.w	r1, r1, #12
 8000f18:	2908      	cmp	r1, #8
 8000f1a:	d01c      	beq.n	8000f56 <HAL_RCC_OscConfig+0x1b2>
 8000f1c:	68e3      	ldr	r3, [r4, #12]
 8000f1e:	2b00      	cmp	r3, #0
 8000f20:	f000 8092 	beq.w	8001048 <HAL_RCC_OscConfig+0x2a4>
 8000f24:	4b55      	ldr	r3, [pc, #340]	; (800107c <HAL_RCC_OscConfig+0x2d8>)
 8000f26:	4d51      	ldr	r5, [pc, #324]	; (800106c <HAL_RCC_OscConfig+0x2c8>)
 8000f28:	2201      	movs	r2, #1
 8000f2a:	601a      	str	r2, [r3, #0]
 8000f2c:	f7ff fb28 	bl	8000580 <HAL_GetTick>
 8000f30:	4606      	mov	r6, r0
 8000f32:	e004      	b.n	8000f3e <HAL_RCC_OscConfig+0x19a>
 8000f34:	f7ff fb24 	bl	8000580 <HAL_GetTick>
 8000f38:	1b80      	subs	r0, r0, r6
 8000f3a:	2802      	cmp	r0, #2
 8000f3c:	d85a      	bhi.n	8000ff4 <HAL_RCC_OscConfig+0x250>
 8000f3e:	682b      	ldr	r3, [r5, #0]
 8000f40:	0798      	lsls	r0, r3, #30
 8000f42:	d5f7      	bpl.n	8000f34 <HAL_RCC_OscConfig+0x190>
 8000f44:	682b      	ldr	r3, [r5, #0]
 8000f46:	6922      	ldr	r2, [r4, #16]
 8000f48:	f023 03f8 	bic.w	r3, r3, #248	; 0xf8
 8000f4c:	ea43 03c2 	orr.w	r3, r3, r2, lsl #3
 8000f50:	602b      	str	r3, [r5, #0]
 8000f52:	6823      	ldr	r3, [r4, #0]
 8000f54:	e762      	b.n	8000e1c <HAL_RCC_OscConfig+0x78>
 8000f56:	6852      	ldr	r2, [r2, #4]
 8000f58:	0256      	lsls	r6, r2, #9
 8000f5a:	d4df      	bmi.n	8000f1c <HAL_RCC_OscConfig+0x178>
 8000f5c:	4a43      	ldr	r2, [pc, #268]	; (800106c <HAL_RCC_OscConfig+0x2c8>)
 8000f5e:	6812      	ldr	r2, [r2, #0]
 8000f60:	0795      	lsls	r5, r2, #30
 8000f62:	d54b      	bpl.n	8000ffc <HAL_RCC_OscConfig+0x258>
 8000f64:	68e2      	ldr	r2, [r4, #12]
 8000f66:	2a01      	cmp	r2, #1
 8000f68:	d048      	beq.n	8000ffc <HAL_RCC_OscConfig+0x258>
 8000f6a:	2001      	movs	r0, #1
 8000f6c:	b002      	add	sp, #8
 8000f6e:	e8bd 81f0 	ldmia.w	sp!, {r4, r5, r6, r7, r8, pc}
 8000f72:	4a3f      	ldr	r2, [pc, #252]	; (8001070 <HAL_RCC_OscConfig+0x2cc>)
 8000f74:	4d3d      	ldr	r5, [pc, #244]	; (800106c <HAL_RCC_OscConfig+0x2c8>)
 8000f76:	6013      	str	r3, [r2, #0]
 8000f78:	f7ff fb02 	bl	8000580 <HAL_GetTick>
 8000f7c:	4606      	mov	r6, r0
 8000f7e:	e004      	b.n	8000f8a <HAL_RCC_OscConfig+0x1e6>
 8000f80:	f7ff fafe 	bl	8000580 <HAL_GetTick>
 8000f84:	1b80      	subs	r0, r0, r6
 8000f86:	2802      	cmp	r0, #2
 8000f88:	d834      	bhi.n	8000ff4 <HAL_RCC_OscConfig+0x250>
 8000f8a:	6f6b      	ldr	r3, [r5, #116]	; 0x74
 8000f8c:	079f      	lsls	r7, r3, #30
 8000f8e:	d4f7      	bmi.n	8000f80 <HAL_RCC_OscConfig+0x1dc>
 8000f90:	e75b      	b.n	8000e4a <HAL_RCC_OscConfig+0xa6>
 8000f92:	684a      	ldr	r2, [r1, #4]
 8000f94:	0250      	lsls	r0, r2, #9
 8000f96:	f57f af1c 	bpl.w	8000dd2 <HAL_RCC_OscConfig+0x2e>
 8000f9a:	4a34      	ldr	r2, [pc, #208]	; (800106c <HAL_RCC_OscConfig+0x2c8>)
 8000f9c:	6812      	ldr	r2, [r2, #0]
 8000f9e:	0391      	lsls	r1, r2, #14
 8000fa0:	f57f af3a 	bpl.w	8000e18 <HAL_RCC_OscConfig+0x74>
 8000fa4:	6862      	ldr	r2, [r4, #4]
 8000fa6:	2a00      	cmp	r2, #0
 8000fa8:	f47f af36 	bne.w	8000e18 <HAL_RCC_OscConfig+0x74>
 8000fac:	e7dd      	b.n	8000f6a <HAL_RCC_OscConfig+0x1c6>
 8000fae:	4a2f      	ldr	r2, [pc, #188]	; (800106c <HAL_RCC_OscConfig+0x2c8>)
 8000fb0:	6813      	ldr	r3, [r2, #0]
 8000fb2:	f443 3380 	orr.w	r3, r3, #65536	; 0x10000
 8000fb6:	6013      	str	r3, [r2, #0]
 8000fb8:	f7ff fae2 	bl	8000580 <HAL_GetTick>
 8000fbc:	4d2b      	ldr	r5, [pc, #172]	; (800106c <HAL_RCC_OscConfig+0x2c8>)
 8000fbe:	4606      	mov	r6, r0
 8000fc0:	e004      	b.n	8000fcc <HAL_RCC_OscConfig+0x228>
 8000fc2:	f7ff fadd 	bl	8000580 <HAL_GetTick>
 8000fc6:	1b80      	subs	r0, r0, r6
 8000fc8:	2864      	cmp	r0, #100	; 0x64
 8000fca:	d813      	bhi.n	8000ff4 <HAL_RCC_OscConfig+0x250>
 8000fcc:	682b      	ldr	r3, [r5, #0]
 8000fce:	039a      	lsls	r2, r3, #14
 8000fd0:	d5f7      	bpl.n	8000fc2 <HAL_RCC_OscConfig+0x21e>
 8000fd2:	e720      	b.n	8000e16 <HAL_RCC_OscConfig+0x72>
 8000fd4:	682a      	ldr	r2, [r5, #0]
 8000fd6:	f442 7280 	orr.w	r2, r2, #256	; 0x100
 8000fda:	602a      	str	r2, [r5, #0]
 8000fdc:	f7ff fad0 	bl	8000580 <HAL_GetTick>
 8000fe0:	4607      	mov	r7, r0
 8000fe2:	682b      	ldr	r3, [r5, #0]
 8000fe4:	05da      	lsls	r2, r3, #23
 8000fe6:	f53f af49 	bmi.w	8000e7c <HAL_RCC_OscConfig+0xd8>
 8000fea:	f7ff fac9 	bl	8000580 <HAL_GetTick>
 8000fee:	1bc0      	subs	r0, r0, r7
 8000ff0:	2802      	cmp	r0, #2
 8000ff2:	d9f6      	bls.n	8000fe2 <HAL_RCC_OscConfig+0x23e>
 8000ff4:	2003      	movs	r0, #3
 8000ff6:	b002      	add	sp, #8
 8000ff8:	e8bd 81f0 	ldmia.w	sp!, {r4, r5, r6, r7, r8, pc}
 8000ffc:	491b      	ldr	r1, [pc, #108]	; (800106c <HAL_RCC_OscConfig+0x2c8>)
 8000ffe:	6920      	ldr	r0, [r4, #16]
 8001000:	680a      	ldr	r2, [r1, #0]
 8001002:	f022 02f8 	bic.w	r2, r2, #248	; 0xf8
 8001006:	ea42 02c0 	orr.w	r2, r2, r0, lsl #3
 800100a:	600a      	str	r2, [r1, #0]
 800100c:	e706      	b.n	8000e1c <HAL_RCC_OscConfig+0x78>
 800100e:	2001      	movs	r0, #1
 8001010:	4770      	bx	lr
 8001012:	2600      	movs	r6, #0
 8001014:	e72d      	b.n	8000e72 <HAL_RCC_OscConfig+0xce>
 8001016:	4a15      	ldr	r2, [pc, #84]	; (800106c <HAL_RCC_OscConfig+0x2c8>)
 8001018:	6f13      	ldr	r3, [r2, #112]	; 0x70
 800101a:	f043 0301 	orr.w	r3, r3, #1
 800101e:	6713      	str	r3, [r2, #112]	; 0x70
 8001020:	f7ff faae 	bl	8000580 <HAL_GetTick>
 8001024:	4d11      	ldr	r5, [pc, #68]	; (800106c <HAL_RCC_OscConfig+0x2c8>)
 8001026:	4680      	mov	r8, r0
 8001028:	f241 3788 	movw	r7, #5000	; 0x1388
 800102c:	e005      	b.n	800103a <HAL_RCC_OscConfig+0x296>
 800102e:	f7ff faa7 	bl	8000580 <HAL_GetTick>
 8001032:	eba0 0008 	sub.w	r0, r0, r8
 8001036:	42b8      	cmp	r0, r7
 8001038:	d8dc      	bhi.n	8000ff4 <HAL_RCC_OscConfig+0x250>
 800103a:	6f2b      	ldr	r3, [r5, #112]	; 0x70
 800103c:	079b      	lsls	r3, r3, #30
 800103e:	d5f6      	bpl.n	800102e <HAL_RCC_OscConfig+0x28a>
 8001040:	2e00      	cmp	r6, #0
 8001042:	f43f af41 	beq.w	8000ec8 <HAL_RCC_OscConfig+0x124>
 8001046:	e01b      	b.n	8001080 <HAL_RCC_OscConfig+0x2dc>
 8001048:	4a0c      	ldr	r2, [pc, #48]	; (800107c <HAL_RCC_OscConfig+0x2d8>)
 800104a:	4d08      	ldr	r5, [pc, #32]	; (800106c <HAL_RCC_OscConfig+0x2c8>)
 800104c:	6013      	str	r3, [r2, #0]
 800104e:	f7ff fa97 	bl	8000580 <HAL_GetTick>
 8001052:	4606      	mov	r6, r0
 8001054:	e004      	b.n	8001060 <HAL_RCC_OscConfig+0x2bc>
 8001056:	f7ff fa93 	bl	8000580 <HAL_GetTick>
 800105a:	1b80      	subs	r0, r0, r6
 800105c:	2802      	cmp	r0, #2
 800105e:	d8c9      	bhi.n	8000ff4 <HAL_RCC_OscConfig+0x250>
 8001060:	682b      	ldr	r3, [r5, #0]
 8001062:	0799      	lsls	r1, r3, #30
 8001064:	d4f7      	bmi.n	8001056 <HAL_RCC_OscConfig+0x2b2>
 8001066:	6823      	ldr	r3, [r4, #0]
 8001068:	e6d8      	b.n	8000e1c <HAL_RCC_OscConfig+0x78>
 800106a:	bf00      	nop
 800106c:	40023800 	.word	0x40023800
 8001070:	42470e80 	.word	0x42470e80
 8001074:	40007000 	.word	0x40007000
 8001078:	42470060 	.word	0x42470060
 800107c:	42470000 	.word	0x42470000
 8001080:	4a23      	ldr	r2, [pc, #140]	; (8001110 <HAL_RCC_OscConfig+0x36c>)
 8001082:	6c13      	ldr	r3, [r2, #64]	; 0x40
 8001084:	f023 5380 	bic.w	r3, r3, #268435456	; 0x10000000
 8001088:	6413      	str	r3, [r2, #64]	; 0x40
 800108a:	e71d      	b.n	8000ec8 <HAL_RCC_OscConfig+0x124>
 800108c:	4b20      	ldr	r3, [pc, #128]	; (8001110 <HAL_RCC_OscConfig+0x36c>)
 800108e:	681a      	ldr	r2, [r3, #0]
 8001090:	f442 2280 	orr.w	r2, r2, #262144	; 0x40000
 8001094:	601a      	str	r2, [r3, #0]
 8001096:	681a      	ldr	r2, [r3, #0]
 8001098:	f442 3280 	orr.w	r2, r2, #65536	; 0x10000
 800109c:	601a      	str	r2, [r3, #0]
 800109e:	e78b      	b.n	8000fb8 <HAL_RCC_OscConfig+0x214>
 80010a0:	4b1b      	ldr	r3, [pc, #108]	; (8001110 <HAL_RCC_OscConfig+0x36c>)
 80010a2:	6f1a      	ldr	r2, [r3, #112]	; 0x70
 80010a4:	f042 0204 	orr.w	r2, r2, #4
 80010a8:	671a      	str	r2, [r3, #112]	; 0x70
 80010aa:	6f1a      	ldr	r2, [r3, #112]	; 0x70
 80010ac:	f042 0201 	orr.w	r2, r2, #1
 80010b0:	671a      	str	r2, [r3, #112]	; 0x70
 80010b2:	e7b5      	b.n	8001020 <HAL_RCC_OscConfig+0x27c>
 80010b4:	f7ff fa64 	bl	8000580 <HAL_GetTick>
 80010b8:	4606      	mov	r6, r0
 80010ba:	e004      	b.n	80010c6 <HAL_RCC_OscConfig+0x322>
 80010bc:	f7ff fa60 	bl	8000580 <HAL_GetTick>
 80010c0:	1b80      	subs	r0, r0, r6
 80010c2:	2802      	cmp	r0, #2
 80010c4:	d896      	bhi.n	8000ff4 <HAL_RCC_OscConfig+0x250>
 80010c6:	682b      	ldr	r3, [r5, #0]
 80010c8:	0199      	lsls	r1, r3, #6
 80010ca:	d4f7      	bmi.n	80010bc <HAL_RCC_OscConfig+0x318>
 80010cc:	e9d4 3607 	ldrd	r3, r6, [r4, #28]
 80010d0:	e9d4 0209 	ldrd	r0, r2, [r4, #36]	; 0x24
 80010d4:	6ae1      	ldr	r1, [r4, #44]	; 0x2c
 80010d6:	4c0e      	ldr	r4, [pc, #56]	; (8001110 <HAL_RCC_OscConfig+0x36c>)
 80010d8:	4333      	orrs	r3, r6
 80010da:	ea43 1380 	orr.w	r3, r3, r0, lsl #6
 80010de:	0852      	lsrs	r2, r2, #1
 80010e0:	ea43 6301 	orr.w	r3, r3, r1, lsl #24
 80010e4:	3a01      	subs	r2, #1
 80010e6:	490b      	ldr	r1, [pc, #44]	; (8001114 <HAL_RCC_OscConfig+0x370>)
 80010e8:	ea43 4302 	orr.w	r3, r3, r2, lsl #16
 80010ec:	2201      	movs	r2, #1
 80010ee:	606b      	str	r3, [r5, #4]
 80010f0:	600a      	str	r2, [r1, #0]
 80010f2:	f7ff fa45 	bl	8000580 <HAL_GetTick>
 80010f6:	4605      	mov	r5, r0
 80010f8:	e005      	b.n	8001106 <HAL_RCC_OscConfig+0x362>
 80010fa:	f7ff fa41 	bl	8000580 <HAL_GetTick>
 80010fe:	1b40      	subs	r0, r0, r5
 8001100:	2802      	cmp	r0, #2
 8001102:	f63f af77 	bhi.w	8000ff4 <HAL_RCC_OscConfig+0x250>
 8001106:	6823      	ldr	r3, [r4, #0]
 8001108:	019a      	lsls	r2, r3, #6
 800110a:	d5f6      	bpl.n	80010fa <HAL_RCC_OscConfig+0x356>
 800110c:	e6f8      	b.n	8000f00 <HAL_RCC_OscConfig+0x15c>
 800110e:	bf00      	nop
 8001110:	40023800 	.word	0x40023800
 8001114:	42470060 	.word	0x42470060

08001118 <HAL_RCC_GetSysClockFreq>:
 8001118:	4917      	ldr	r1, [pc, #92]	; (8001178 <HAL_RCC_GetSysClockFreq+0x60>)
 800111a:	b508      	push	{r3, lr}
 800111c:	688b      	ldr	r3, [r1, #8]
 800111e:	f003 030c 	and.w	r3, r3, #12
 8001122:	2b04      	cmp	r3, #4
 8001124:	d01b      	beq.n	800115e <HAL_RCC_GetSysClockFreq+0x46>
 8001126:	2b08      	cmp	r3, #8
 8001128:	d117      	bne.n	800115a <HAL_RCC_GetSysClockFreq+0x42>
 800112a:	684a      	ldr	r2, [r1, #4]
 800112c:	684b      	ldr	r3, [r1, #4]
 800112e:	f413 0380 	ands.w	r3, r3, #4194304	; 0x400000
 8001132:	f002 023f 	and.w	r2, r2, #63	; 0x3f
 8001136:	d114      	bne.n	8001162 <HAL_RCC_GetSysClockFreq+0x4a>
 8001138:	6849      	ldr	r1, [r1, #4]
 800113a:	4810      	ldr	r0, [pc, #64]	; (800117c <HAL_RCC_GetSysClockFreq+0x64>)
 800113c:	f3c1 1188 	ubfx	r1, r1, #6, #9
 8001140:	fba1 0100 	umull	r0, r1, r1, r0
 8001144:	f7ff f852 	bl	80001ec <__aeabi_uldivmod>
 8001148:	4b0b      	ldr	r3, [pc, #44]	; (8001178 <HAL_RCC_GetSysClockFreq+0x60>)
 800114a:	685b      	ldr	r3, [r3, #4]
 800114c:	f3c3 4301 	ubfx	r3, r3, #16, #2
 8001150:	3301      	adds	r3, #1
 8001152:	005b      	lsls	r3, r3, #1
 8001154:	fbb0 f0f3 	udiv	r0, r0, r3
 8001158:	bd08      	pop	{r3, pc}
 800115a:	4808      	ldr	r0, [pc, #32]	; (800117c <HAL_RCC_GetSysClockFreq+0x64>)
 800115c:	bd08      	pop	{r3, pc}
 800115e:	4808      	ldr	r0, [pc, #32]	; (8001180 <HAL_RCC_GetSysClockFreq+0x68>)
 8001160:	bd08      	pop	{r3, pc}
 8001162:	684b      	ldr	r3, [r1, #4]
 8001164:	4806      	ldr	r0, [pc, #24]	; (8001180 <HAL_RCC_GetSysClockFreq+0x68>)
 8001166:	f3c3 1388 	ubfx	r3, r3, #6, #9
 800116a:	fba3 0100 	umull	r0, r1, r3, r0
 800116e:	2300      	movs	r3, #0
 8001170:	f7ff f83c 	bl	80001ec <__aeabi_uldivmod>
 8001174:	e7e8      	b.n	8001148 <HAL_RCC_GetSysClockFreq+0x30>
 8001176:	bf00      	nop
 8001178:	40023800 	.word	0x40023800
 800117c:	00f42400 	.word	0x00f42400
 8001180:	007a1200 	.word	0x007a1200

08001184 <HAL_RCC_ClockConfig>:
 8001184:	b160      	cbz	r0, 80011a0 <HAL_RCC_ClockConfig+0x1c>
 8001186:	4a48      	ldr	r2, [pc, #288]	; (80012a8 <HAL_RCC_ClockConfig+0x124>)
 8001188:	6813      	ldr	r3, [r2, #0]
 800118a:	f003 030f 	and.w	r3, r3, #15
 800118e:	428b      	cmp	r3, r1
 8001190:	d208      	bcs.n	80011a4 <HAL_RCC_ClockConfig+0x20>
 8001192:	b2cb      	uxtb	r3, r1
 8001194:	7013      	strb	r3, [r2, #0]
 8001196:	6813      	ldr	r3, [r2, #0]
 8001198:	f003 030f 	and.w	r3, r3, #15
 800119c:	428b      	cmp	r3, r1
 800119e:	d001      	beq.n	80011a4 <HAL_RCC_ClockConfig+0x20>
 80011a0:	2001      	movs	r0, #1
 80011a2:	4770      	bx	lr
 80011a4:	6803      	ldr	r3, [r0, #0]
 80011a6:	e92d 41f0 	stmdb	sp!, {r4, r5, r6, r7, r8, lr}
 80011aa:	079d      	lsls	r5, r3, #30
 80011ac:	d514      	bpl.n	80011d8 <HAL_RCC_ClockConfig+0x54>
 80011ae:	075c      	lsls	r4, r3, #29
 80011b0:	d504      	bpl.n	80011bc <HAL_RCC_ClockConfig+0x38>
 80011b2:	4c3e      	ldr	r4, [pc, #248]	; (80012ac <HAL_RCC_ClockConfig+0x128>)
 80011b4:	68a2      	ldr	r2, [r4, #8]
 80011b6:	f442 52e0 	orr.w	r2, r2, #7168	; 0x1c00
 80011ba:	60a2      	str	r2, [r4, #8]
 80011bc:	071a      	lsls	r2, r3, #28
 80011be:	d504      	bpl.n	80011ca <HAL_RCC_ClockConfig+0x46>
 80011c0:	4c3a      	ldr	r4, [pc, #232]	; (80012ac <HAL_RCC_ClockConfig+0x128>)
 80011c2:	68a2      	ldr	r2, [r4, #8]
 80011c4:	f442 4260 	orr.w	r2, r2, #57344	; 0xe000
 80011c8:	60a2      	str	r2, [r4, #8]
 80011ca:	4c38      	ldr	r4, [pc, #224]	; (80012ac <HAL_RCC_ClockConfig+0x128>)
 80011cc:	6885      	ldr	r5, [r0, #8]
 80011ce:	68a2      	ldr	r2, [r4, #8]
 80011d0:	f022 02f0 	bic.w	r2, r2, #240	; 0xf0
 80011d4:	432a      	orrs	r2, r5
 80011d6:	60a2      	str	r2, [r4, #8]
 80011d8:	07df      	lsls	r7, r3, #31
 80011da:	4604      	mov	r4, r0
 80011dc:	460d      	mov	r5, r1
 80011de:	d522      	bpl.n	8001226 <HAL_RCC_ClockConfig+0xa2>
 80011e0:	6842      	ldr	r2, [r0, #4]
 80011e2:	2a01      	cmp	r2, #1
 80011e4:	d056      	beq.n	8001294 <HAL_RCC_ClockConfig+0x110>
 80011e6:	1e93      	subs	r3, r2, #2
 80011e8:	2b01      	cmp	r3, #1
 80011ea:	4b30      	ldr	r3, [pc, #192]	; (80012ac <HAL_RCC_ClockConfig+0x128>)
 80011ec:	681b      	ldr	r3, [r3, #0]
 80011ee:	d958      	bls.n	80012a2 <HAL_RCC_ClockConfig+0x11e>
 80011f0:	0799      	lsls	r1, r3, #30
 80011f2:	d525      	bpl.n	8001240 <HAL_RCC_ClockConfig+0xbc>
 80011f4:	4e2d      	ldr	r6, [pc, #180]	; (80012ac <HAL_RCC_ClockConfig+0x128>)
 80011f6:	68b3      	ldr	r3, [r6, #8]
 80011f8:	f023 0303 	bic.w	r3, r3, #3
 80011fc:	4313      	orrs	r3, r2
 80011fe:	60b3      	str	r3, [r6, #8]
 8001200:	f7ff f9be 	bl	8000580 <HAL_GetTick>
 8001204:	f241 3788 	movw	r7, #5000	; 0x1388
 8001208:	4680      	mov	r8, r0
 800120a:	e005      	b.n	8001218 <HAL_RCC_ClockConfig+0x94>
 800120c:	f7ff f9b8 	bl	8000580 <HAL_GetTick>
 8001210:	eba0 0008 	sub.w	r0, r0, r8
 8001214:	42b8      	cmp	r0, r7
 8001216:	d842      	bhi.n	800129e <HAL_RCC_ClockConfig+0x11a>
 8001218:	68b3      	ldr	r3, [r6, #8]
 800121a:	6862      	ldr	r2, [r4, #4]
 800121c:	f003 030c 	and.w	r3, r3, #12
 8001220:	ebb3 0f82 	cmp.w	r3, r2, lsl #2
 8001224:	d1f2      	bne.n	800120c <HAL_RCC_ClockConfig+0x88>
 8001226:	4a20      	ldr	r2, [pc, #128]	; (80012a8 <HAL_RCC_ClockConfig+0x124>)
 8001228:	6813      	ldr	r3, [r2, #0]
 800122a:	f003 030f 	and.w	r3, r3, #15
 800122e:	42ab      	cmp	r3, r5
 8001230:	d909      	bls.n	8001246 <HAL_RCC_ClockConfig+0xc2>
 8001232:	b2eb      	uxtb	r3, r5
 8001234:	7013      	strb	r3, [r2, #0]
 8001236:	6813      	ldr	r3, [r2, #0]
 8001238:	f003 030f 	and.w	r3, r3, #15
 800123c:	42ab      	cmp	r3, r5
 800123e:	d002      	beq.n	8001246 <HAL_RCC_ClockConfig+0xc2>
 8001240:	2001      	movs	r0, #1
 8001242:	e8bd 81f0 	ldmia.w	sp!, {r4, r5, r6, r7, r8, pc}
 8001246:	6823      	ldr	r3, [r4, #0]
 8001248:	075a      	lsls	r2, r3, #29
 800124a:	d506      	bpl.n	800125a <HAL_RCC_ClockConfig+0xd6>
 800124c:	4917      	ldr	r1, [pc, #92]	; (80012ac <HAL_RCC_ClockConfig+0x128>)
 800124e:	68e0      	ldr	r0, [r4, #12]
 8001250:	688a      	ldr	r2, [r1, #8]
 8001252:	f422 52e0 	bic.w	r2, r2, #7168	; 0x1c00
 8001256:	4302      	orrs	r2, r0
 8001258:	608a      	str	r2, [r1, #8]
 800125a:	071b      	lsls	r3, r3, #28
 800125c:	d411      	bmi.n	8001282 <HAL_RCC_ClockConfig+0xfe>
 800125e:	f7ff ff5b 	bl	8001118 <HAL_RCC_GetSysClockFreq>
 8001262:	4b12      	ldr	r3, [pc, #72]	; (80012ac <HAL_RCC_ClockConfig+0x128>)
 8001264:	4912      	ldr	r1, [pc, #72]	; (80012b0 <HAL_RCC_ClockConfig+0x12c>)
 8001266:	689b      	ldr	r3, [r3, #8]
 8001268:	4a12      	ldr	r2, [pc, #72]	; (80012b4 <HAL_RCC_ClockConfig+0x130>)
 800126a:	f3c3 1303 	ubfx	r3, r3, #4, #4
 800126e:	5ccb      	ldrb	r3, [r1, r3]
 8001270:	fa20 f303 	lsr.w	r3, r0, r3
 8001274:	2000      	movs	r0, #0
 8001276:	6013      	str	r3, [r2, #0]
 8001278:	f7ff f938 	bl	80004ec <HAL_InitTick>
 800127c:	2000      	movs	r0, #0
 800127e:	e8bd 81f0 	ldmia.w	sp!, {r4, r5, r6, r7, r8, pc}
 8001282:	4a0a      	ldr	r2, [pc, #40]	; (80012ac <HAL_RCC_ClockConfig+0x128>)
 8001284:	6921      	ldr	r1, [r4, #16]
 8001286:	6893      	ldr	r3, [r2, #8]
 8001288:	f423 4360 	bic.w	r3, r3, #57344	; 0xe000
 800128c:	ea43 03c1 	orr.w	r3, r3, r1, lsl #3
 8001290:	6093      	str	r3, [r2, #8]
 8001292:	e7e4      	b.n	800125e <HAL_RCC_ClockConfig+0xda>
 8001294:	4b05      	ldr	r3, [pc, #20]	; (80012ac <HAL_RCC_ClockConfig+0x128>)
 8001296:	681b      	ldr	r3, [r3, #0]
 8001298:	039e      	lsls	r6, r3, #14
 800129a:	d4ab      	bmi.n	80011f4 <HAL_RCC_ClockConfig+0x70>
 800129c:	e7d0      	b.n	8001240 <HAL_RCC_ClockConfig+0xbc>
 800129e:	2003      	movs	r0, #3
 80012a0:	e7ed      	b.n	800127e <HAL_RCC_ClockConfig+0xfa>
 80012a2:	0198      	lsls	r0, r3, #6
 80012a4:	d4a6      	bmi.n	80011f4 <HAL_RCC_ClockConfig+0x70>
 80012a6:	e7cb      	b.n	8001240 <HAL_RCC_ClockConfig+0xbc>
 80012a8:	40023c00 	.word	0x40023c00
 80012ac:	40023800 	.word	0x40023800
 80012b0:	0800197c 	.word	0x0800197c
 80012b4:	20000008 	.word	0x20000008

080012b8 <HAL_RCC_GetPCLK1Freq>:
 80012b8:	4b04      	ldr	r3, [pc, #16]	; (80012cc <HAL_RCC_GetPCLK1Freq+0x14>)
 80012ba:	4a05      	ldr	r2, [pc, #20]	; (80012d0 <HAL_RCC_GetPCLK1Freq+0x18>)
 80012bc:	689b      	ldr	r3, [r3, #8]
 80012be:	4905      	ldr	r1, [pc, #20]	; (80012d4 <HAL_RCC_GetPCLK1Freq+0x1c>)
 80012c0:	f3c3 2382 	ubfx	r3, r3, #10, #3
 80012c4:	6808      	ldr	r0, [r1, #0]
 80012c6:	5cd3      	ldrb	r3, [r2, r3]
 80012c8:	40d8      	lsrs	r0, r3
 80012ca:	4770      	bx	lr
 80012cc:	40023800 	.word	0x40023800
 80012d0:	0800198c 	.word	0x0800198c
 80012d4:	20000008 	.word	0x20000008

080012d8 <HAL_TIM_Base_Init>:
 80012d8:	2800      	cmp	r0, #0
 80012da:	d05c      	beq.n	8001396 <HAL_TIM_Base_Init+0xbe>
 80012dc:	b5f8      	push	{r3, r4, r5, r6, r7, lr}
 80012de:	f890 303d 	ldrb.w	r3, [r0, #61]	; 0x3d
 80012e2:	4604      	mov	r4, r0
 80012e4:	f003 02ff 	and.w	r2, r3, #255	; 0xff
 80012e8:	b3bb      	cbz	r3, 800135a <HAL_TIM_Base_Init+0x82>
 80012ea:	6822      	ldr	r2, [r4, #0]
 80012ec:	4e3a      	ldr	r6, [pc, #232]	; (80013d8 <HAL_TIM_Base_Init+0x100>)
 80012ee:	69a5      	ldr	r5, [r4, #24]
 80012f0:	68e0      	ldr	r0, [r4, #12]
 80012f2:	6861      	ldr	r1, [r4, #4]
 80012f4:	2302      	movs	r3, #2
 80012f6:	f884 303d 	strb.w	r3, [r4, #61]	; 0x3d
 80012fa:	42b2      	cmp	r2, r6
 80012fc:	6813      	ldr	r3, [r2, #0]
 80012fe:	d04c      	beq.n	800139a <HAL_TIM_Base_Init+0xc2>
 8001300:	f1b2 4f80 	cmp.w	r2, #1073741824	; 0x40000000
 8001304:	d058      	beq.n	80013b8 <HAL_TIM_Base_Init+0xe0>
 8001306:	f5a6 467c 	sub.w	r6, r6, #64512	; 0xfc00
 800130a:	42b2      	cmp	r2, r6
 800130c:	d02a      	beq.n	8001364 <HAL_TIM_Base_Init+0x8c>
 800130e:	f506 6680 	add.w	r6, r6, #1024	; 0x400
 8001312:	42b2      	cmp	r2, r6
 8001314:	d026      	beq.n	8001364 <HAL_TIM_Base_Init+0x8c>
 8001316:	f506 6680 	add.w	r6, r6, #1024	; 0x400
 800131a:	42b2      	cmp	r2, r6
 800131c:	d022      	beq.n	8001364 <HAL_TIM_Base_Init+0x8c>
 800131e:	f506 4678 	add.w	r6, r6, #63488	; 0xf800
 8001322:	42b2      	cmp	r2, r6
 8001324:	d01e      	beq.n	8001364 <HAL_TIM_Base_Init+0x8c>
 8001326:	f506 5670 	add.w	r6, r6, #15360	; 0x3c00
 800132a:	42b2      	cmp	r2, r6
 800132c:	d013      	beq.n	8001356 <HAL_TIM_Base_Init+0x7e>
 800132e:	f506 6680 	add.w	r6, r6, #1024	; 0x400
 8001332:	42b2      	cmp	r2, r6
 8001334:	d00f      	beq.n	8001356 <HAL_TIM_Base_Init+0x7e>
 8001336:	f506 6680 	add.w	r6, r6, #1024	; 0x400
 800133a:	42b2      	cmp	r2, r6
 800133c:	d00b      	beq.n	8001356 <HAL_TIM_Base_Init+0x7e>
 800133e:	f5a6 3698 	sub.w	r6, r6, #77824	; 0x13000
 8001342:	42b2      	cmp	r2, r6
 8001344:	d007      	beq.n	8001356 <HAL_TIM_Base_Init+0x7e>
 8001346:	f506 6680 	add.w	r6, r6, #1024	; 0x400
 800134a:	42b2      	cmp	r2, r6
 800134c:	d003      	beq.n	8001356 <HAL_TIM_Base_Init+0x7e>
 800134e:	f506 6680 	add.w	r6, r6, #1024	; 0x400
 8001352:	42b2      	cmp	r2, r6
 8001354:	d138      	bne.n	80013c8 <HAL_TIM_Base_Init+0xf0>
 8001356:	6926      	ldr	r6, [r4, #16]
 8001358:	e033      	b.n	80013c2 <HAL_TIM_Base_Init+0xea>
 800135a:	f880 203c 	strb.w	r2, [r0, #60]	; 0x3c
 800135e:	f000 fa53 	bl	8001808 <HAL_TIM_Base_MspInit>
 8001362:	e7c2      	b.n	80012ea <HAL_TIM_Base_Init+0x12>
 8001364:	68a6      	ldr	r6, [r4, #8]
 8001366:	4f1d      	ldr	r7, [pc, #116]	; (80013dc <HAL_TIM_Base_Init+0x104>)
 8001368:	f023 0370 	bic.w	r3, r3, #112	; 0x70
 800136c:	4333      	orrs	r3, r6
 800136e:	6926      	ldr	r6, [r4, #16]
 8001370:	f423 7340 	bic.w	r3, r3, #768	; 0x300
 8001374:	4333      	orrs	r3, r6
 8001376:	f023 0380 	bic.w	r3, r3, #128	; 0x80
 800137a:	432b      	orrs	r3, r5
 800137c:	42ba      	cmp	r2, r7
 800137e:	6013      	str	r3, [r2, #0]
 8001380:	62d0      	str	r0, [r2, #44]	; 0x2c
 8001382:	6291      	str	r1, [r2, #40]	; 0x28
 8001384:	d101      	bne.n	800138a <HAL_TIM_Base_Init+0xb2>
 8001386:	6963      	ldr	r3, [r4, #20]
 8001388:	6313      	str	r3, [r2, #48]	; 0x30
 800138a:	2301      	movs	r3, #1
 800138c:	6153      	str	r3, [r2, #20]
 800138e:	2000      	movs	r0, #0
 8001390:	f884 303d 	strb.w	r3, [r4, #61]	; 0x3d
 8001394:	bdf8      	pop	{r3, r4, r5, r6, r7, pc}
 8001396:	2001      	movs	r0, #1
 8001398:	4770      	bx	lr
 800139a:	68a7      	ldr	r7, [r4, #8]
 800139c:	6926      	ldr	r6, [r4, #16]
 800139e:	f023 0370 	bic.w	r3, r3, #112	; 0x70
 80013a2:	433b      	orrs	r3, r7
 80013a4:	f423 7340 	bic.w	r3, r3, #768	; 0x300
 80013a8:	4333      	orrs	r3, r6
 80013aa:	f023 0380 	bic.w	r3, r3, #128	; 0x80
 80013ae:	432b      	orrs	r3, r5
 80013b0:	6013      	str	r3, [r2, #0]
 80013b2:	62d0      	str	r0, [r2, #44]	; 0x2c
 80013b4:	6291      	str	r1, [r2, #40]	; 0x28
 80013b6:	e7e6      	b.n	8001386 <HAL_TIM_Base_Init+0xae>
 80013b8:	68a7      	ldr	r7, [r4, #8]
 80013ba:	6926      	ldr	r6, [r4, #16]
 80013bc:	f023 0370 	bic.w	r3, r3, #112	; 0x70
 80013c0:	433b      	orrs	r3, r7
 80013c2:	f423 7340 	bic.w	r3, r3, #768	; 0x300
 80013c6:	4333      	orrs	r3, r6
 80013c8:	f023 0380 	bic.w	r3, r3, #128	; 0x80
 80013cc:	432b      	orrs	r3, r5
 80013ce:	6013      	str	r3, [r2, #0]
 80013d0:	62d0      	str	r0, [r2, #44]	; 0x2c
 80013d2:	6291      	str	r1, [r2, #40]	; 0x28
 80013d4:	e7d9      	b.n	800138a <HAL_TIM_Base_Init+0xb2>
 80013d6:	bf00      	nop
 80013d8:	40010000 	.word	0x40010000
 80013dc:	40010400 	.word	0x40010400

080013e0 <HAL_TIM_OC_DelayElapsedCallback>:
 80013e0:	4770      	bx	lr
 80013e2:	bf00      	nop

080013e4 <HAL_TIM_IC_CaptureCallback>:
 80013e4:	4770      	bx	lr
 80013e6:	bf00      	nop

080013e8 <HAL_TIM_PWM_PulseFinishedCallback>:
 80013e8:	4770      	bx	lr
 80013ea:	bf00      	nop

080013ec <HAL_TIM_TriggerCallback>:
 80013ec:	4770      	bx	lr
 80013ee:	bf00      	nop

080013f0 <HAL_TIM_IRQHandler>:
 80013f0:	6803      	ldr	r3, [r0, #0]
 80013f2:	691a      	ldr	r2, [r3, #16]
 80013f4:	0791      	lsls	r1, r2, #30
 80013f6:	b510      	push	{r4, lr}
 80013f8:	4604      	mov	r4, r0
 80013fa:	d502      	bpl.n	8001402 <HAL_TIM_IRQHandler+0x12>
 80013fc:	68da      	ldr	r2, [r3, #12]
 80013fe:	0792      	lsls	r2, r2, #30
 8001400:	d45f      	bmi.n	80014c2 <HAL_TIM_IRQHandler+0xd2>
 8001402:	691a      	ldr	r2, [r3, #16]
 8001404:	0750      	lsls	r0, r2, #29
 8001406:	d502      	bpl.n	800140e <HAL_TIM_IRQHandler+0x1e>
 8001408:	68da      	ldr	r2, [r3, #12]
 800140a:	0751      	lsls	r1, r2, #29
 800140c:	d446      	bmi.n	800149c <HAL_TIM_IRQHandler+0xac>
 800140e:	691a      	ldr	r2, [r3, #16]
 8001410:	0712      	lsls	r2, r2, #28
 8001412:	d502      	bpl.n	800141a <HAL_TIM_IRQHandler+0x2a>
 8001414:	68da      	ldr	r2, [r3, #12]
 8001416:	0710      	lsls	r0, r2, #28
 8001418:	d42e      	bmi.n	8001478 <HAL_TIM_IRQHandler+0x88>
 800141a:	691a      	ldr	r2, [r3, #16]
 800141c:	06d2      	lsls	r2, r2, #27
 800141e:	d502      	bpl.n	8001426 <HAL_TIM_IRQHandler+0x36>
 8001420:	68da      	ldr	r2, [r3, #12]
 8001422:	06d0      	lsls	r0, r2, #27
 8001424:	d418      	bmi.n	8001458 <HAL_TIM_IRQHandler+0x68>
 8001426:	691a      	ldr	r2, [r3, #16]
 8001428:	07d1      	lsls	r1, r2, #31
 800142a:	d502      	bpl.n	8001432 <HAL_TIM_IRQHandler+0x42>
 800142c:	68da      	ldr	r2, [r3, #12]
 800142e:	07d2      	lsls	r2, r2, #31
 8001430:	d45d      	bmi.n	80014ee <HAL_TIM_IRQHandler+0xfe>
 8001432:	691a      	ldr	r2, [r3, #16]
 8001434:	0610      	lsls	r0, r2, #24
 8001436:	d502      	bpl.n	800143e <HAL_TIM_IRQHandler+0x4e>
 8001438:	68da      	ldr	r2, [r3, #12]
 800143a:	0611      	lsls	r1, r2, #24
 800143c:	d45f      	bmi.n	80014fe <HAL_TIM_IRQHandler+0x10e>
 800143e:	691a      	ldr	r2, [r3, #16]
 8001440:	0652      	lsls	r2, r2, #25
 8001442:	d502      	bpl.n	800144a <HAL_TIM_IRQHandler+0x5a>
 8001444:	68da      	ldr	r2, [r3, #12]
 8001446:	0650      	lsls	r0, r2, #25
 8001448:	d461      	bmi.n	800150e <HAL_TIM_IRQHandler+0x11e>
 800144a:	691a      	ldr	r2, [r3, #16]
 800144c:	0691      	lsls	r1, r2, #26
 800144e:	d502      	bpl.n	8001456 <HAL_TIM_IRQHandler+0x66>
 8001450:	68da      	ldr	r2, [r3, #12]
 8001452:	0692      	lsls	r2, r2, #26
 8001454:	d443      	bmi.n	80014de <HAL_TIM_IRQHandler+0xee>
 8001456:	bd10      	pop	{r4, pc}
 8001458:	f06f 0210 	mvn.w	r2, #16
 800145c:	611a      	str	r2, [r3, #16]
 800145e:	69db      	ldr	r3, [r3, #28]
 8001460:	2208      	movs	r2, #8
 8001462:	f413 7f40 	tst.w	r3, #768	; 0x300
 8001466:	7722      	strb	r2, [r4, #28]
 8001468:	4620      	mov	r0, r4
 800146a:	d064      	beq.n	8001536 <HAL_TIM_IRQHandler+0x146>
 800146c:	f7ff ffba 	bl	80013e4 <HAL_TIM_IC_CaptureCallback>
 8001470:	2200      	movs	r2, #0
 8001472:	6823      	ldr	r3, [r4, #0]
 8001474:	7722      	strb	r2, [r4, #28]
 8001476:	e7d6      	b.n	8001426 <HAL_TIM_IRQHandler+0x36>
 8001478:	f06f 0208 	mvn.w	r2, #8
 800147c:	611a      	str	r2, [r3, #16]
 800147e:	69db      	ldr	r3, [r3, #28]
 8001480:	2204      	movs	r2, #4
 8001482:	0799      	lsls	r1, r3, #30
 8001484:	7722      	strb	r2, [r4, #28]
 8001486:	4620      	mov	r0, r4
 8001488:	d152      	bne.n	8001530 <HAL_TIM_IRQHandler+0x140>
 800148a:	f7ff ffa9 	bl	80013e0 <HAL_TIM_OC_DelayElapsedCallback>
 800148e:	4620      	mov	r0, r4
 8001490:	f7ff ffaa 	bl	80013e8 <HAL_TIM_PWM_PulseFinishedCallback>
 8001494:	2200      	movs	r2, #0
 8001496:	6823      	ldr	r3, [r4, #0]
 8001498:	7722      	strb	r2, [r4, #28]
 800149a:	e7be      	b.n	800141a <HAL_TIM_IRQHandler+0x2a>
 800149c:	f06f 0204 	mvn.w	r2, #4
 80014a0:	611a      	str	r2, [r3, #16]
 80014a2:	699b      	ldr	r3, [r3, #24]
 80014a4:	2202      	movs	r2, #2
 80014a6:	f413 7f40 	tst.w	r3, #768	; 0x300
 80014aa:	7722      	strb	r2, [r4, #28]
 80014ac:	4620      	mov	r0, r4
 80014ae:	d13c      	bne.n	800152a <HAL_TIM_IRQHandler+0x13a>
 80014b0:	f7ff ff96 	bl	80013e0 <HAL_TIM_OC_DelayElapsedCallback>
 80014b4:	4620      	mov	r0, r4
 80014b6:	f7ff ff97 	bl	80013e8 <HAL_TIM_PWM_PulseFinishedCallback>
 80014ba:	2200      	movs	r2, #0
 80014bc:	6823      	ldr	r3, [r4, #0]
 80014be:	7722      	strb	r2, [r4, #28]
 80014c0:	e7a5      	b.n	800140e <HAL_TIM_IRQHandler+0x1e>
 80014c2:	f06f 0202 	mvn.w	r2, #2
 80014c6:	611a      	str	r2, [r3, #16]
 80014c8:	699b      	ldr	r3, [r3, #24]
 80014ca:	2201      	movs	r2, #1
 80014cc:	079b      	lsls	r3, r3, #30
 80014ce:	7702      	strb	r2, [r0, #28]
 80014d0:	d025      	beq.n	800151e <HAL_TIM_IRQHandler+0x12e>
 80014d2:	f7ff ff87 	bl	80013e4 <HAL_TIM_IC_CaptureCallback>
 80014d6:	2200      	movs	r2, #0
 80014d8:	6823      	ldr	r3, [r4, #0]
 80014da:	7722      	strb	r2, [r4, #28]
 80014dc:	e791      	b.n	8001402 <HAL_TIM_IRQHandler+0x12>
 80014de:	f06f 0220 	mvn.w	r2, #32
 80014e2:	4620      	mov	r0, r4
 80014e4:	611a      	str	r2, [r3, #16]
 80014e6:	e8bd 4010 	ldmia.w	sp!, {r4, lr}
 80014ea:	f000 b84d 	b.w	8001588 <HAL_TIMEx_CommutCallback>
 80014ee:	f06f 0201 	mvn.w	r2, #1
 80014f2:	611a      	str	r2, [r3, #16]
 80014f4:	4620      	mov	r0, r4
 80014f6:	f000 f84b 	bl	8001590 <HAL_TIM_PeriodElapsedCallback>
 80014fa:	6823      	ldr	r3, [r4, #0]
 80014fc:	e799      	b.n	8001432 <HAL_TIM_IRQHandler+0x42>
 80014fe:	f06f 0280 	mvn.w	r2, #128	; 0x80
 8001502:	611a      	str	r2, [r3, #16]
 8001504:	4620      	mov	r0, r4
 8001506:	f000 f841 	bl	800158c <HAL_TIMEx_BreakCallback>
 800150a:	6823      	ldr	r3, [r4, #0]
 800150c:	e797      	b.n	800143e <HAL_TIM_IRQHandler+0x4e>
 800150e:	f06f 0240 	mvn.w	r2, #64	; 0x40
 8001512:	611a      	str	r2, [r3, #16]
 8001514:	4620      	mov	r0, r4
 8001516:	f7ff ff69 	bl	80013ec <HAL_TIM_TriggerCallback>
 800151a:	6823      	ldr	r3, [r4, #0]
 800151c:	e795      	b.n	800144a <HAL_TIM_IRQHandler+0x5a>
 800151e:	f7ff ff5f 	bl	80013e0 <HAL_TIM_OC_DelayElapsedCallback>
 8001522:	4620      	mov	r0, r4
 8001524:	f7ff ff60 	bl	80013e8 <HAL_TIM_PWM_PulseFinishedCallback>
 8001528:	e7d5      	b.n	80014d6 <HAL_TIM_IRQHandler+0xe6>
 800152a:	f7ff ff5b 	bl	80013e4 <HAL_TIM_IC_CaptureCallback>
 800152e:	e7c4      	b.n	80014ba <HAL_TIM_IRQHandler+0xca>
 8001530:	f7ff ff58 	bl	80013e4 <HAL_TIM_IC_CaptureCallback>
 8001534:	e7ae      	b.n	8001494 <HAL_TIM_IRQHandler+0xa4>
 8001536:	f7ff ff53 	bl	80013e0 <HAL_TIM_OC_DelayElapsedCallback>
 800153a:	4620      	mov	r0, r4
 800153c:	f7ff ff54 	bl	80013e8 <HAL_TIM_PWM_PulseFinishedCallback>
 8001540:	e796      	b.n	8001470 <HAL_TIM_IRQHandler+0x80>
 8001542:	bf00      	nop

08001544 <HAL_TIMEx_MasterConfigSynchronization>:
 8001544:	f890 203c 	ldrb.w	r2, [r0, #60]	; 0x3c
 8001548:	2a01      	cmp	r2, #1
 800154a:	d01a      	beq.n	8001582 <HAL_TIMEx_MasterConfigSynchronization+0x3e>
 800154c:	b470      	push	{r4, r5, r6}
 800154e:	2202      	movs	r2, #2
 8001550:	6804      	ldr	r4, [r0, #0]
 8001552:	f880 203d 	strb.w	r2, [r0, #61]	; 0x3d
 8001556:	e9d1 6500 	ldrd	r6, r5, [r1]
 800155a:	4603      	mov	r3, r0
 800155c:	6860      	ldr	r0, [r4, #4]
 800155e:	68a2      	ldr	r2, [r4, #8]
 8001560:	f020 0170 	bic.w	r1, r0, #112	; 0x70
 8001564:	f022 0280 	bic.w	r2, r2, #128	; 0x80
 8001568:	4331      	orrs	r1, r6
 800156a:	432a      	orrs	r2, r5
 800156c:	2601      	movs	r6, #1
 800156e:	2500      	movs	r5, #0
 8001570:	6061      	str	r1, [r4, #4]
 8001572:	4628      	mov	r0, r5
 8001574:	60a2      	str	r2, [r4, #8]
 8001576:	f883 603d 	strb.w	r6, [r3, #61]	; 0x3d
 800157a:	f883 503c 	strb.w	r5, [r3, #60]	; 0x3c
 800157e:	bc70      	pop	{r4, r5, r6}
 8001580:	4770      	bx	lr
 8001582:	2002      	movs	r0, #2
 8001584:	4770      	bx	lr
 8001586:	bf00      	nop

08001588 <HAL_TIMEx_CommutCallback>:
 8001588:	4770      	bx	lr
 800158a:	bf00      	nop

0800158c <HAL_TIMEx_BreakCallback>:
 800158c:	4770      	bx	lr
 800158e:	bf00      	nop

08001590 <HAL_TIM_PeriodElapsedCallback>:
 8001590:	4770      	bx	lr
 8001592:	bf00      	nop

08001594 <SystemClock_Config>:
 8001594:	b570      	push	{r4, r5, r6, lr}
 8001596:	2400      	movs	r4, #0
 8001598:	b094      	sub	sp, #80	; 0x50
 800159a:	e9cd 440b 	strd	r4, r4, [sp, #44]	; 0x2c
 800159e:	e9cd 4409 	strd	r4, r4, [sp, #36]	; 0x24
 80015a2:	e9cd 4404 	strd	r4, r4, [sp, #16]
 80015a6:	e9cd 4406 	strd	r4, r4, [sp, #24]
 80015aa:	4a1e      	ldr	r2, [pc, #120]	; (8001624 <SystemClock_Config+0x90>)
 80015ac:	9401      	str	r4, [sp, #4]
 80015ae:	940d      	str	r4, [sp, #52]	; 0x34
 80015b0:	9403      	str	r4, [sp, #12]
 80015b2:	6c11      	ldr	r1, [r2, #64]	; 0x40
 80015b4:	4b1c      	ldr	r3, [pc, #112]	; (8001628 <SystemClock_Config+0x94>)
 80015b6:	f041 5180 	orr.w	r1, r1, #268435456	; 0x10000000
 80015ba:	6411      	str	r1, [r2, #64]	; 0x40
 80015bc:	6c12      	ldr	r2, [r2, #64]	; 0x40
 80015be:	f002 5280 	and.w	r2, r2, #268435456	; 0x10000000
 80015c2:	9201      	str	r2, [sp, #4]
 80015c4:	9a01      	ldr	r2, [sp, #4]
 80015c6:	9402      	str	r4, [sp, #8]
 80015c8:	681a      	ldr	r2, [r3, #0]
 80015ca:	f442 4240 	orr.w	r2, r2, #49152	; 0xc000
 80015ce:	601a      	str	r2, [r3, #0]
 80015d0:	681b      	ldr	r3, [r3, #0]
 80015d2:	940f      	str	r4, [sp, #60]	; 0x3c
 80015d4:	f403 4340 	and.w	r3, r3, #49152	; 0xc000
 80015d8:	9302      	str	r3, [sp, #8]
 80015da:	2201      	movs	r2, #1
 80015dc:	2310      	movs	r3, #16
 80015de:	2502      	movs	r5, #2
 80015e0:	2108      	movs	r1, #8
 80015e2:	9802      	ldr	r0, [sp, #8]
 80015e4:	920b      	str	r2, [sp, #44]	; 0x2c
 80015e6:	930c      	str	r3, [sp, #48]	; 0x30
 80015e8:	22b4      	movs	r2, #180	; 0xb4
 80015ea:	2304      	movs	r3, #4
 80015ec:	a808      	add	r0, sp, #32
 80015ee:	9110      	str	r1, [sp, #64]	; 0x40
 80015f0:	9211      	str	r2, [sp, #68]	; 0x44
 80015f2:	9313      	str	r3, [sp, #76]	; 0x4c
 80015f4:	9508      	str	r5, [sp, #32]
 80015f6:	950e      	str	r5, [sp, #56]	; 0x38
 80015f8:	9512      	str	r5, [sp, #72]	; 0x48
 80015fa:	260f      	movs	r6, #15
 80015fc:	f7ff fbd2 	bl	8000da4 <HAL_RCC_OscConfig>
 8001600:	f7ff fb92 	bl	8000d28 <HAL_PWREx_EnableOverDrive>
 8001604:	f44f 52a0 	mov.w	r2, #5120	; 0x1400
 8001608:	f44f 5380 	mov.w	r3, #4096	; 0x1000
 800160c:	a803      	add	r0, sp, #12
 800160e:	2105      	movs	r1, #5
 8001610:	9504      	str	r5, [sp, #16]
 8001612:	9405      	str	r4, [sp, #20]
 8001614:	9603      	str	r6, [sp, #12]
 8001616:	e9cd 2306 	strd	r2, r3, [sp, #24]
 800161a:	f7ff fdb3 	bl	8001184 <HAL_RCC_ClockConfig>
 800161e:	b014      	add	sp, #80	; 0x50
 8001620:	bd70      	pop	{r4, r5, r6, pc}
 8001622:	bf00      	nop
 8001624:	40023800 	.word	0x40023800
 8001628:	40007000 	.word	0x40007000

0800162c <main>:
 800162c:	b500      	push	{lr}
 800162e:	2500      	movs	r5, #0
 8001630:	b089      	sub	sp, #36	; 0x24
 8001632:	f7fe ff7f 	bl	8000534 <HAL_Init>
 8001636:	f7ff ffad 	bl	8001594 <SystemClock_Config>
 800163a:	e9cd 5503 	strd	r5, r5, [sp, #12]
 800163e:	e9cd 5505 	strd	r5, r5, [sp, #20]
 8001642:	4b40      	ldr	r3, [pc, #256]	; (8001744 <main+0x118>)
 8001644:	9500      	str	r5, [sp, #0]
 8001646:	9507      	str	r5, [sp, #28]
 8001648:	6b1a      	ldr	r2, [r3, #48]	; 0x30
 800164a:	4c3f      	ldr	r4, [pc, #252]	; (8001748 <main+0x11c>)
 800164c:	483f      	ldr	r0, [pc, #252]	; (800174c <main+0x120>)
 800164e:	4e40      	ldr	r6, [pc, #256]	; (8001750 <main+0x124>)
 8001650:	f042 0220 	orr.w	r2, r2, #32
 8001654:	631a      	str	r2, [r3, #48]	; 0x30
 8001656:	6b1a      	ldr	r2, [r3, #48]	; 0x30
 8001658:	f002 0220 	and.w	r2, r2, #32
 800165c:	9200      	str	r2, [sp, #0]
 800165e:	9a00      	ldr	r2, [sp, #0]
 8001660:	9501      	str	r5, [sp, #4]
 8001662:	6b1a      	ldr	r2, [r3, #48]	; 0x30
 8001664:	f042 0280 	orr.w	r2, r2, #128	; 0x80
 8001668:	631a      	str	r2, [r3, #48]	; 0x30
 800166a:	6b1a      	ldr	r2, [r3, #48]	; 0x30
 800166c:	f002 0280 	and.w	r2, r2, #128	; 0x80
 8001670:	9201      	str	r2, [sp, #4]
 8001672:	9a01      	ldr	r2, [sp, #4]
 8001674:	9502      	str	r5, [sp, #8]
 8001676:	6b1a      	ldr	r2, [r3, #48]	; 0x30
 8001678:	f042 0240 	orr.w	r2, r2, #64	; 0x40
 800167c:	631a      	str	r2, [r3, #48]	; 0x30
 800167e:	6b1b      	ldr	r3, [r3, #48]	; 0x30
 8001680:	f003 0340 	and.w	r3, r3, #64	; 0x40
 8001684:	462a      	mov	r2, r5
 8001686:	9302      	str	r3, [sp, #8]
 8001688:	f44f 41c0 	mov.w	r1, #24576	; 0x6000
 800168c:	9b02      	ldr	r3, [sp, #8]
 800168e:	f7ff f93d 	bl	800090c <HAL_GPIO_WritePin>
 8001692:	f44f 42c0 	mov.w	r2, #24576	; 0x6000
 8001696:	2301      	movs	r3, #1
 8001698:	a903      	add	r1, sp, #12
 800169a:	482c      	ldr	r0, [pc, #176]	; (800174c <main+0x120>)
 800169c:	9203      	str	r2, [sp, #12]
 800169e:	e9cd 5505 	strd	r5, r5, [sp, #20]
 80016a2:	9304      	str	r3, [sp, #16]
 80016a4:	f7fe fff4 	bl	8000690 <HAL_GPIO_Init>
 80016a8:	4a2a      	ldr	r2, [pc, #168]	; (8001754 <main+0x128>)
 80016aa:	492b      	ldr	r1, [pc, #172]	; (8001758 <main+0x12c>)
 80016ac:	6062      	str	r2, [r4, #4]
 80016ae:	f44f 4380 	mov.w	r3, #16384	; 0x4000
 80016b2:	4620      	mov	r0, r4
 80016b4:	6123      	str	r3, [r4, #16]
 80016b6:	60a5      	str	r5, [r4, #8]
 80016b8:	60e5      	str	r5, [r4, #12]
 80016ba:	e9c4 5505 	strd	r5, r5, [r4, #20]
 80016be:	e9c4 5507 	strd	r5, r5, [r4, #28]
 80016c2:	6021      	str	r1, [r4, #0]
 80016c4:	f7ff f92e 	bl	8000924 <HAL_I2C_Init>
 80016c8:	4629      	mov	r1, r5
 80016ca:	4620      	mov	r0, r4
 80016cc:	f7ff fae6 	bl	8000c9c <HAL_I2CEx_ConfigAnalogFilter>
 80016d0:	4629      	mov	r1, r5
 80016d2:	4620      	mov	r0, r4
 80016d4:	f7ff fb06 	bl	8000ce4 <HAL_I2CEx_ConfigDigitalFilter>
 80016d8:	4a20      	ldr	r2, [pc, #128]	; (800175c <main+0x130>)
 80016da:	9503      	str	r5, [sp, #12]
 80016dc:	2395      	movs	r3, #149	; 0x95
 80016de:	4630      	mov	r0, r6
 80016e0:	9504      	str	r5, [sp, #16]
 80016e2:	e9c6 5502 	strd	r5, r5, [r6, #8]
 80016e6:	61b5      	str	r5, [r6, #24]
 80016e8:	6032      	str	r2, [r6, #0]
 80016ea:	6073      	str	r3, [r6, #4]
 80016ec:	f7ff fdf4 	bl	80012d8 <HAL_TIM_Base_Init>
 80016f0:	a903      	add	r1, sp, #12
 80016f2:	4630      	mov	r0, r6
 80016f4:	e9cd 5503 	strd	r5, r5, [sp, #12]
 80016f8:	f7ff ff24 	bl	8001544 <HAL_TIMEx_MasterConfigSynchronization>
 80016fc:	4d13      	ldr	r5, [pc, #76]	; (800174c <main+0x120>)
 80016fe:	2364      	movs	r3, #100	; 0x64
 8001700:	2202      	movs	r2, #2
 8001702:	2192      	movs	r1, #146	; 0x92
 8001704:	4620      	mov	r0, r4
 8001706:	f7ff f9c5 	bl	8000a94 <HAL_I2C_IsDeviceReady>
 800170a:	2364      	movs	r3, #100	; 0x64
 800170c:	2202      	movs	r2, #2
 800170e:	2193      	movs	r1, #147	; 0x93
 8001710:	b948      	cbnz	r0, 8001726 <main+0xfa>
 8001712:	4628      	mov	r0, r5
 8001714:	f44f 4180 	mov.w	r1, #16384	; 0x4000
 8001718:	f7ff f8fc 	bl	8000914 <HAL_GPIO_TogglePin>
 800171c:	f44f 7096 	mov.w	r0, #300	; 0x12c
 8001720:	f7fe ff34 	bl	800058c <HAL_Delay>
 8001724:	e7eb      	b.n	80016fe <main+0xd2>
 8001726:	4620      	mov	r0, r4
 8001728:	f7ff f9b4 	bl	8000a94 <HAL_I2C_IsDeviceReady>
 800172c:	2800      	cmp	r0, #0
 800172e:	d1e6      	bne.n	80016fe <main+0xd2>
 8001730:	4628      	mov	r0, r5
 8001732:	f44f 5100 	mov.w	r1, #8192	; 0x2000
 8001736:	f7ff f8ed 	bl	8000914 <HAL_GPIO_TogglePin>
 800173a:	f44f 7096 	mov.w	r0, #300	; 0x12c
 800173e:	f7fe ff25 	bl	800058c <HAL_Delay>
 8001742:	e7dc      	b.n	80016fe <main+0xd2>
 8001744:	40023800 	.word	0x40023800
 8001748:	2000002c 	.word	0x2000002c
 800174c:	40021800 	.word	0x40021800
 8001750:	20000138 	.word	0x20000138
 8001754:	000186a0 	.word	0x000186a0
 8001758:	40005800 	.word	0x40005800
 800175c:	40001400 	.word	0x40001400

08001760 <HAL_MspInit>:
 8001760:	b082      	sub	sp, #8
 8001762:	4b0c      	ldr	r3, [pc, #48]	; (8001794 <HAL_MspInit+0x34>)
 8001764:	2100      	movs	r1, #0
 8001766:	9100      	str	r1, [sp, #0]
 8001768:	6c5a      	ldr	r2, [r3, #68]	; 0x44
 800176a:	f442 4280 	orr.w	r2, r2, #16384	; 0x4000
 800176e:	645a      	str	r2, [r3, #68]	; 0x44
 8001770:	6c5a      	ldr	r2, [r3, #68]	; 0x44
 8001772:	f402 4280 	and.w	r2, r2, #16384	; 0x4000
 8001776:	9200      	str	r2, [sp, #0]
 8001778:	9a00      	ldr	r2, [sp, #0]
 800177a:	9101      	str	r1, [sp, #4]
 800177c:	6c1a      	ldr	r2, [r3, #64]	; 0x40
 800177e:	f042 5280 	orr.w	r2, r2, #268435456	; 0x10000000
 8001782:	641a      	str	r2, [r3, #64]	; 0x40
 8001784:	6c1b      	ldr	r3, [r3, #64]	; 0x40
 8001786:	f003 5380 	and.w	r3, r3, #268435456	; 0x10000000
 800178a:	9301      	str	r3, [sp, #4]
 800178c:	9b01      	ldr	r3, [sp, #4]
 800178e:	b002      	add	sp, #8
 8001790:	4770      	bx	lr
 8001792:	bf00      	nop
 8001794:	40023800 	.word	0x40023800

08001798 <HAL_I2C_MspInit>:
 8001798:	b570      	push	{r4, r5, r6, lr}
 800179a:	6802      	ldr	r2, [r0, #0]
 800179c:	4b17      	ldr	r3, [pc, #92]	; (80017fc <HAL_I2C_MspInit+0x64>)
 800179e:	b088      	sub	sp, #32
 80017a0:	2400      	movs	r4, #0
 80017a2:	429a      	cmp	r2, r3
 80017a4:	e9cd 4403 	strd	r4, r4, [sp, #12]
 80017a8:	e9cd 4405 	strd	r4, r4, [sp, #20]
 80017ac:	9407      	str	r4, [sp, #28]
 80017ae:	d001      	beq.n	80017b4 <HAL_I2C_MspInit+0x1c>
 80017b0:	b008      	add	sp, #32
 80017b2:	bd70      	pop	{r4, r5, r6, pc}
 80017b4:	4d12      	ldr	r5, [pc, #72]	; (8001800 <HAL_I2C_MspInit+0x68>)
 80017b6:	9401      	str	r4, [sp, #4]
 80017b8:	6b2b      	ldr	r3, [r5, #48]	; 0x30
 80017ba:	4812      	ldr	r0, [pc, #72]	; (8001804 <HAL_I2C_MspInit+0x6c>)
 80017bc:	f043 0320 	orr.w	r3, r3, #32
 80017c0:	632b      	str	r3, [r5, #48]	; 0x30
 80017c2:	6b2b      	ldr	r3, [r5, #48]	; 0x30
 80017c4:	f003 0320 	and.w	r3, r3, #32
 80017c8:	9301      	str	r3, [sp, #4]
 80017ca:	2303      	movs	r3, #3
 80017cc:	9a01      	ldr	r2, [sp, #4]
 80017ce:	9303      	str	r3, [sp, #12]
 80017d0:	9306      	str	r3, [sp, #24]
 80017d2:	2201      	movs	r2, #1
 80017d4:	2304      	movs	r3, #4
 80017d6:	a903      	add	r1, sp, #12
 80017d8:	2612      	movs	r6, #18
 80017da:	9307      	str	r3, [sp, #28]
 80017dc:	9604      	str	r6, [sp, #16]
 80017de:	9205      	str	r2, [sp, #20]
 80017e0:	f7fe ff56 	bl	8000690 <HAL_GPIO_Init>
 80017e4:	9402      	str	r4, [sp, #8]
 80017e6:	6c2b      	ldr	r3, [r5, #64]	; 0x40
 80017e8:	f443 0380 	orr.w	r3, r3, #4194304	; 0x400000
 80017ec:	642b      	str	r3, [r5, #64]	; 0x40
 80017ee:	6c2b      	ldr	r3, [r5, #64]	; 0x40
 80017f0:	f403 0380 	and.w	r3, r3, #4194304	; 0x400000
 80017f4:	9302      	str	r3, [sp, #8]
 80017f6:	9b02      	ldr	r3, [sp, #8]
 80017f8:	b008      	add	sp, #32
 80017fa:	bd70      	pop	{r4, r5, r6, pc}
 80017fc:	40005800 	.word	0x40005800
 8001800:	40023800 	.word	0x40023800
 8001804:	40021400 	.word	0x40021400

08001808 <HAL_TIM_Base_MspInit>:
 8001808:	6802      	ldr	r2, [r0, #0]
 800180a:	4b0e      	ldr	r3, [pc, #56]	; (8001844 <HAL_TIM_Base_MspInit+0x3c>)
 800180c:	429a      	cmp	r2, r3
 800180e:	d000      	beq.n	8001812 <HAL_TIM_Base_MspInit+0xa>
 8001810:	4770      	bx	lr
 8001812:	b500      	push	{lr}
 8001814:	b083      	sub	sp, #12
 8001816:	2200      	movs	r2, #0
 8001818:	f503 3309 	add.w	r3, r3, #140288	; 0x22400
 800181c:	9201      	str	r2, [sp, #4]
 800181e:	6c19      	ldr	r1, [r3, #64]	; 0x40
 8001820:	f041 0120 	orr.w	r1, r1, #32
 8001824:	6419      	str	r1, [r3, #64]	; 0x40
 8001826:	6c1b      	ldr	r3, [r3, #64]	; 0x40
 8001828:	f003 0320 	and.w	r3, r3, #32
 800182c:	9301      	str	r3, [sp, #4]
 800182e:	4611      	mov	r1, r2
 8001830:	2037      	movs	r0, #55	; 0x37
 8001832:	9b01      	ldr	r3, [sp, #4]
 8001834:	f7fe fece 	bl	80005d4 <HAL_NVIC_SetPriority>
 8001838:	2037      	movs	r0, #55	; 0x37
 800183a:	b003      	add	sp, #12
 800183c:	f85d eb04 	ldr.w	lr, [sp], #4
 8001840:	f7fe befe 	b.w	8000640 <HAL_NVIC_EnableIRQ>
 8001844:	40001400 	.word	0x40001400

08001848 <NMI_Handler>:
 8001848:	4770      	bx	lr
 800184a:	bf00      	nop

0800184c <HardFault_Handler>:
 800184c:	e7fe      	b.n	800184c <HardFault_Handler>
 800184e:	bf00      	nop

08001850 <MemManage_Handler>:
 8001850:	e7fe      	b.n	8001850 <MemManage_Handler>
 8001852:	bf00      	nop

08001854 <BusFault_Handler>:
 8001854:	e7fe      	b.n	8001854 <BusFault_Handler>
 8001856:	bf00      	nop

08001858 <UsageFault_Handler>:
 8001858:	e7fe      	b.n	8001858 <UsageFault_Handler>
 800185a:	bf00      	nop

0800185c <SVC_Handler>:
 800185c:	4770      	bx	lr
 800185e:	bf00      	nop

08001860 <DebugMon_Handler>:
 8001860:	4770      	bx	lr
 8001862:	bf00      	nop

08001864 <PendSV_Handler>:
 8001864:	4770      	bx	lr
 8001866:	bf00      	nop

08001868 <SysTick_Handler>:
 8001868:	f7fe be7e 	b.w	8000568 <HAL_IncTick>

0800186c <TIM7_IRQHandler>:
 800186c:	4801      	ldr	r0, [pc, #4]	; (8001874 <TIM7_IRQHandler+0x8>)
 800186e:	f7ff bdbf 	b.w	80013f0 <HAL_TIM_IRQHandler>
 8001872:	bf00      	nop
 8001874:	20000138 	.word	0x20000138

08001878 <SystemInit>:
 8001878:	4910      	ldr	r1, [pc, #64]	; (80018bc <SystemInit+0x44>)
 800187a:	4b11      	ldr	r3, [pc, #68]	; (80018c0 <SystemInit+0x48>)
 800187c:	f8d1 2088 	ldr.w	r2, [r1, #136]	; 0x88
 8001880:	f442 0270 	orr.w	r2, r2, #15728640	; 0xf00000
 8001884:	b410      	push	{r4}
 8001886:	f8c1 2088 	str.w	r2, [r1, #136]	; 0x88
 800188a:	681a      	ldr	r2, [r3, #0]
 800188c:	4c0d      	ldr	r4, [pc, #52]	; (80018c4 <SystemInit+0x4c>)
 800188e:	2000      	movs	r0, #0
 8001890:	f042 0201 	orr.w	r2, r2, #1
 8001894:	601a      	str	r2, [r3, #0]
 8001896:	6098      	str	r0, [r3, #8]
 8001898:	681a      	ldr	r2, [r3, #0]
 800189a:	f022 7284 	bic.w	r2, r2, #17301504	; 0x1080000
 800189e:	f422 3280 	bic.w	r2, r2, #65536	; 0x10000
 80018a2:	601a      	str	r2, [r3, #0]
 80018a4:	605c      	str	r4, [r3, #4]
 80018a6:	681a      	ldr	r2, [r3, #0]
 80018a8:	f04f 6400 	mov.w	r4, #134217728	; 0x8000000
 80018ac:	f422 2280 	bic.w	r2, r2, #262144	; 0x40000
 80018b0:	601a      	str	r2, [r3, #0]
 80018b2:	60d8      	str	r0, [r3, #12]
 80018b4:	608c      	str	r4, [r1, #8]
 80018b6:	f85d 4b04 	ldr.w	r4, [sp], #4
 80018ba:	4770      	bx	lr
 80018bc:	e000ed00 	.word	0xe000ed00
 80018c0:	40023800 	.word	0x40023800
 80018c4:	24003010 	.word	0x24003010

080018c8 <Reset_Handler>:
 80018c8:	f8df d034 	ldr.w	sp, [pc, #52]	; 8001900 <LoopFillZerobss+0x14>
 80018cc:	2100      	movs	r1, #0
 80018ce:	e003      	b.n	80018d8 <LoopCopyDataInit>

080018d0 <CopyDataInit>:
 80018d0:	4b0c      	ldr	r3, [pc, #48]	; (8001904 <LoopFillZerobss+0x18>)
 80018d2:	585b      	ldr	r3, [r3, r1]
 80018d4:	5043      	str	r3, [r0, r1]
 80018d6:	3104      	adds	r1, #4

080018d8 <LoopCopyDataInit>:
 80018d8:	480b      	ldr	r0, [pc, #44]	; (8001908 <LoopFillZerobss+0x1c>)
 80018da:	4b0c      	ldr	r3, [pc, #48]	; (800190c <LoopFillZerobss+0x20>)
 80018dc:	1842      	adds	r2, r0, r1
 80018de:	429a      	cmp	r2, r3
 80018e0:	d3f6      	bcc.n	80018d0 <CopyDataInit>
 80018e2:	4a0b      	ldr	r2, [pc, #44]	; (8001910 <LoopFillZerobss+0x24>)
 80018e4:	e002      	b.n	80018ec <LoopFillZerobss>

080018e6 <FillZerobss>:
 80018e6:	2300      	movs	r3, #0
 80018e8:	f842 3b04 	str.w	r3, [r2], #4

080018ec <LoopFillZerobss>:
 80018ec:	4b09      	ldr	r3, [pc, #36]	; (8001914 <LoopFillZerobss+0x28>)
 80018ee:	429a      	cmp	r2, r3
 80018f0:	d3f9      	bcc.n	80018e6 <FillZerobss>
 80018f2:	f7ff ffc1 	bl	8001878 <SystemInit>
 80018f6:	f000 f811 	bl	800191c <__libc_init_array>
 80018fa:	f7ff fe97 	bl	800162c <main>
 80018fe:	4770      	bx	lr
 8001900:	20030000 	.word	0x20030000
 8001904:	080019a4 	.word	0x080019a4
 8001908:	20000000 	.word	0x20000000
 800190c:	2000000c 	.word	0x2000000c
 8001910:	2000000c 	.word	0x2000000c
 8001914:	20000178 	.word	0x20000178

08001918 <ADC_IRQHandler>:
 8001918:	e7fe      	b.n	8001918 <ADC_IRQHandler>
	...

0800191c <__libc_init_array>:
 800191c:	b570      	push	{r4, r5, r6, lr}
 800191e:	4e0d      	ldr	r6, [pc, #52]	; (8001954 <__libc_init_array+0x38>)
 8001920:	4c0d      	ldr	r4, [pc, #52]	; (8001958 <__libc_init_array+0x3c>)
 8001922:	1ba4      	subs	r4, r4, r6
 8001924:	10a4      	asrs	r4, r4, #2
 8001926:	2500      	movs	r5, #0
 8001928:	42a5      	cmp	r5, r4
 800192a:	d109      	bne.n	8001940 <__libc_init_array+0x24>
 800192c:	4e0b      	ldr	r6, [pc, #44]	; (800195c <__libc_init_array+0x40>)
 800192e:	4c0c      	ldr	r4, [pc, #48]	; (8001960 <__libc_init_array+0x44>)
 8001930:	f000 f818 	bl	8001964 <_init>
 8001934:	1ba4      	subs	r4, r4, r6
 8001936:	10a4      	asrs	r4, r4, #2
 8001938:	2500      	movs	r5, #0
 800193a:	42a5      	cmp	r5, r4
 800193c:	d105      	bne.n	800194a <__libc_init_array+0x2e>
 800193e:	bd70      	pop	{r4, r5, r6, pc}
 8001940:	f856 3025 	ldr.w	r3, [r6, r5, lsl #2]
 8001944:	4798      	blx	r3
 8001946:	3501      	adds	r5, #1
 8001948:	e7ee      	b.n	8001928 <__libc_init_array+0xc>
 800194a:	f856 3025 	ldr.w	r3, [r6, r5, lsl #2]
 800194e:	4798      	blx	r3
 8001950:	3501      	adds	r5, #1
 8001952:	e7f2      	b.n	800193a <__libc_init_array+0x1e>
 8001954:	0800199c 	.word	0x0800199c
 8001958:	0800199c 	.word	0x0800199c
 800195c:	0800199c 	.word	0x0800199c
 8001960:	080019a0 	.word	0x080019a0

08001964 <_init>:
 8001964:	b5f8      	push	{r3, r4, r5, r6, r7, lr}
 8001966:	bf00      	nop
 8001968:	bcf8      	pop	{r3, r4, r5, r6, r7}
 800196a:	bc08      	pop	{r3}
 800196c:	469e      	mov	lr, r3
 800196e:	4770      	bx	lr

08001970 <_fini>:
 8001970:	b5f8      	push	{r3, r4, r5, r6, r7, lr}
 8001972:	bf00      	nop
 8001974:	bcf8      	pop	{r3, r4, r5, r6, r7}
 8001976:	bc08      	pop	{r3}
 8001978:	469e      	mov	lr, r3
 800197a:	4770      	bx	lr
